(lp0
(S'photos/Amstel_Light.png'
p1
(lp2
(icolor_base
Bucket
p3
(dp4
S'count'
p5
F5026.0
sS'rgb_aves'
p6
(F210.4317558522022
F218.77005533191041
F223.04190591974611
tp7
sS'col'
p8
ccopy_reg
_reconstructor
p9
(ccolormath.color_objects
LabColor
p10
c__builtin__
object
p11
Ntp12
Rp13
(dp14
S'lab_l'
p15
F86.845559513858007
sS'observer'
p16
S'2'
p17
sS'lab_a'
p18
F-2.2726753680527012
sS'lab_b'
p19
F-3.017943589079386
sS'OTHER_VALUES'
p20
(lp21
S'illuminant'
p22
ag16
asg22
S'd65'
p23
sbsba(icolor_base
Bucket
p24
(dp25
g5
F4460.0
sg6
(F154.36586107372054
F32.213029965435425
F31.928632613807729
tp26
sg8
g9
(g10
g11
Ntp27
Rp28
(dp29
g15
F34.00174832953536
sg16
g17
sg18
F49.187944660348286
sg19
F31.987949922214231
sg20
(lp30
g22
ag16
asg22
S'd65'
p31
sbsba(icolor_base
Bucket
p32
(dp33
g5
F1889.0
sg6
(F181.07319377563928
F193.58033320164967
F135.8374814847393
tp34
sg8
g9
(g10
g11
Ntp35
Rp36
(dp37
g15
F76.182594316423703
sg16
g17
sg18
F-14.125188740392369
sg19
F27.755621965220033
sg20
(lp38
g22
ag16
asg22
S'd65'
p39
sbsba(icolor_base
Bucket
p40
(dp41
g5
F1110.0
sg6
(F20.861251038866197
F37.614820017071018
F44.136103584030863
tp42
sg8
g9
(g10
g11
Ntp43
Rp44
(dp45
g15
F13.986429123128474
sg16
g17
sg18
F-5.0488551951414777
sg19
F-6.181399915607388
sg20
(lp46
g22
ag16
asg22
S'd65'
p47
sbsba(icolor_base
Bucket
p48
(dp49
g5
F770.0
sg6
(F155.59390250862182
F196.69306185436844
F201.63092280949843
tp50
sg8
g9
(g10
g11
Ntp51
Rp52
(dp53
g15
F76.838263356277537
sg16
g17
sg18
F-12.397018199076292
sg19
F-6.97172030266624
sg20
(lp54
g22
ag16
asg22
S'd65'
p55
sbsba(icolor_base
Bucket
p56
(dp57
g5
F257.0
sg6
(F72.750638308186595
F102.46870709042946
F112.12311607274947
tp58
sg8
g9
(g10
g11
Ntp59
Rp60
(dp61
g15
F41.356659227280446
sg16
g17
sg18
F-7.9023168294680701
sg19
F-9.0405739303354267
sg20
(lp62
g22
ag16
asg22
S'd65'
p63
sbsba(icolor_base
Bucket
p64
(dp65
g5
F216.0
sg6
(F116.39364624337968
F149.52969439413232
F158.80099586763026
tp66
sg8
g9
(g10
g11
Ntp67
Rp68
(dp69
g15
F59.914114346002563
sg16
g17
sg18
F-9.5909825070294445
sg19
F-8.5846418260718149
sg20
(lp70
g22
ag16
asg22
S'd65'
p71
sbsba(icolor_base
Bucket
p72
(dp73
g5
F196.0
sg6
(F200.1673267121156
F178.13442490756444
F182.19853157188294
tp74
sg8
g9
(g10
g11
Ntp75
Rp76
(dp77
g15
F74.507345414297632
sg16
g17
sg18
F8.5571644650112582
sg19
F0.84355160387097339
sg20
(lp78
g22
ag16
asg22
S'd65'
p79
sbsbatp80
a(S'photos/Anderson_Valley_Brewery.png'
p81
(lp82
(icolor_base
Bucket
p83
(dp84
g5
F4742.0
sg6
(F24.092467074737151
F32.528809789518142
F32.815276673594987
tp85
sg8
g9
(g10
g11
Ntp86
Rp87
(dp88
g15
F11.902116571704735
sg16
g17
sg18
F-4.0036070054365878
sg19
F-1.3293568618922003
sg20
(lp89
g22
ag16
asg22
S'd65'
p90
sbsba(icolor_base
Bucket
p91
(dp92
g5
F3543.0
sg6
(F229.19135436147047
F163.19797382227821
F8.2742660033598359
tp93
sg8
g9
(g10
g11
Ntp94
Rp95
(dp96
g15
F71.468536565174347
sg16
g17
sg18
F13.98798522136252
sg19
F74.233804861655727
sg20
(lp97
g22
ag16
asg22
S'd65'
p98
sbsba(icolor_base
Bucket
p99
(dp100
g5
F3072.0
sg6
(F207.49161546794736
F230.00704883017718
F30.121003608403495
tp101
sg8
g9
(g10
g11
Ntp102
Rp103
(dp104
g15
F86.973766215535576
sg16
g17
sg18
F-29.065255929102584
sg19
F81.993924884034357
sg20
(lp105
g22
ag16
asg22
S'd65'
p106
sbsba(icolor_base
Bucket
p107
(dp108
g5
F1049.0
sg6
(F31.065332005516495
F22.405812772117571
F11.768506948181802
tp109
sg8
g9
(g10
g11
Ntp110
Rp111
(dp112
g15
F8.0546333868943378
sg16
g17
sg18
F2.810481631230155
sg19
cnumpy.core.multiarray
scalar
p113
(cnumpy
dtype
p114
(S'f8'
p115
I0
I1
tp116
Rp117
(I3
S'<'
p118
NNNI-1
I-1
I0
tp119
bS'\x08\xefQ\xed\xe9\x91\x1c@'
p120
tp121
Rp122
sg20
(lp123
g22
ag16
asg22
S'd65'
p124
sbsbatp125
a(S'photos/Bass.png'
p126
(lp127
(icolor_base
Bucket
p128
(dp129
g5
F8213.0
sg6
(F120.64407505471441
F116.70005478074482
F66.972889241793709
tp130
sg8
g9
(g10
g11
Ntp131
Rp132
(dp133
g15
F48.502323611178554
sg16
g17
sg18
F-6.2768790589752266
sg19
F28.06041335584294
sg20
(lp134
g22
ag16
asg22
S'd65'
p135
sbsba(icolor_base
Bucket
p136
(dp137
g5
F3017.0
sg6
(F148.97713298287727
F151.53707744366903
F93.484629640820387
tp138
sg8
g9
(g10
g11
Ntp139
Rp140
(dp141
g15
F61.339357126808309
sg16
g17
sg18
F-10.465385504984381
sg19
F30.679903529482043
sg20
(lp142
g22
ag16
asg22
S'd65'
p143
sbsba(icolor_base
Bucket
p144
(dp145
g5
F2588.0
sg6
(F198.20875441312978
F29.710225687726151
F18.040405613878402
tp146
sg8
g9
(g10
g11
Ntp147
Rp148
(dp149
g15
F42.734731118465064
sg16
g17
sg18
F62.262108173638694
sg19
F50.117037866950533
sg20
(lp150
g22
ag16
asg22
S'd65'
p151
sbsba(icolor_base
Bucket
p152
(dp153
g5
F441.0
sg6
(F134.63828519624343
F49.653034464576599
F25.794941294977452
tp154
sg8
g9
(g10
g11
Ntp155
Rp156
(dp157
g15
F32.93624332174835
sg16
g17
sg18
F35.064565558750118
sg19
F33.139183073142839
sg20
(lp158
g22
ag16
asg22
S'd65'
p159
sbsba(icolor_base
Bucket
p160
(dp161
g5
F212.0
sg6
(F126.68004431876074
F89.87680462564812
F48.72422032545667
tp162
sg8
g9
(g10
g11
Ntp163
Rp164
(dp165
g15
F41.290437196616054
sg16
g17
sg18
F10.429933692552545
sg19
F29.383010366156437
sg20
(lp166
g22
ag16
asg22
S'd65'
p167
sbsbatp168
a(S'photos/Becks.png'
p169
(lp170
(icolor_base
Bucket
p171
(dp172
g5
F7300.0
sg6
(F99.551416111345489
F132.3803803457038
F151.36751700164751
tp173
sg8
g9
(g10
g11
Ntp174
Rp175
(dp176
g15
F53.433677625131367
sg16
g17
sg18
F-6.4614038967498182
sg19
F-13.824066356128784
sg20
(lp177
g22
ag16
asg22
S'd65'
p178
sbsba(icolor_base
Bucket
p179
(dp180
g5
F2615.0
sg6
(F27.547402764941083
F43.255228791738105
F51.110479449173297
tp181
sg8
g9
(g10
g11
Ntp182
Rp183
(dp184
g15
F16.570312077473368
sg16
g17
sg18
F-3.7412332565990027
sg19
F-7.1731937697539383
sg20
(lp185
g22
ag16
asg22
S'd65'
p186
sbsba(icolor_base
Bucket
p187
(dp188
g5
F1980.0
sg6
(F120.61693264191223
F172.62447780049357
F200.73092192208046
tp189
sg8
g9
(g10
g11
Ntp190
Rp191
(dp192
g15
F68.143965064556383
sg16
g17
sg18
F-9.9634911934888279
sg19
F-19.675911855180182
sg20
(lp193
g22
ag16
asg22
S'd65'
p194
sbsba(icolor_base
Bucket
p195
(dp196
g5
F1779.0
sg6
(F69.872927622211819
F92.558210578999962
F105.61739738137706
tp197
sg8
g9
(g10
g11
Ntp198
Rp199
(dp200
g15
F38.14773414205672
sg16
g17
sg18
F-5.1527001383834259
sg19
F-10.214143743876637
sg20
(lp201
g22
ag16
asg22
S'd65'
p202
sbsba(icolor_base
Bucket
p203
(dp204
g5
F576.0
sg6
(F150.02990619112583
F47.66796630991378
F50.886653440545437
tp205
sg8
g9
(g10
g11
Ntp206
Rp207
(dp208
g15
F35.671449189604218
sg16
g17
sg18
F42.791677624868655
sg19
F22.116891628595848
sg20
(lp209
g22
ag16
asg22
S'd65'
p210
sbsbatp211
a(S'photos/Black_Toad_Dark_Ale.png'
p212
(lp213
(icolor_base
Bucket
p214
(dp215
g5
I14490
sg6
(F18.0
F17.0
F17.0
tp216
sg8
g9
(g10
g11
Ntp217
Rp218
(dp219
g15
g113
(g117
S'\xc0\x83NA\x0c\x98\x14@'
p220
tp221
Rp222
sg16
g17
sg18
g113
(g117
S'\xeax \xa0\xedq\xd8?'
p223
tp224
Rp225
sg19
g113
(g117
S'p\xb7!\xa3\xe2\x15\xc1?'
p226
tp227
Rp228
sg20
(lp229
g22
ag16
asg22
S'd65'
p230
sbsbatp231
a(S'photos/Corona.png'
p232
(lp233
(icolor_base
Bucket
p234
(dp235
g5
F9371.0
sg6
(F9.5048940645681874
F47.89614279409038
F99.957719479706668
tp236
sg8
g9
(g10
g11
Ntp237
Rp238
(dp239
g15
F20.43313391128833
sg16
g17
sg18
F9.0191308060735267
sg19
F-34.310540523579682
sg20
(lp240
g22
ag16
asg22
S'd65'
p241
sbsba(icolor_base
Bucket
p242
(dp243
g5
F2588.0
sg6
(F140.22127129689193
F230.23490812990397
F241.66816270415703
tp244
sg8
g9
(g10
g11
Ntp245
Rp246
(dp247
g15
F86.294029663639719
sg16
g17
sg18
F-23.925948579986422
sg19
F-14.291686188484199
sg20
(lp248
g22
ag16
asg22
S'd65'
p249
sbsba(icolor_base
Bucket
p250
(dp251
g5
F552.0
sg6
(F238.24622671977562
F252.11612563879083
F249.03312264475338
tp252
sg8
g9
(g10
g11
Ntp253
Rp254
(dp255
g15
F97.888025578128293
sg16
g17
sg18
F-5.1171375756558497
sg19
F-0.15768476233288808
sg20
(lp256
g22
ag16
asg22
S'd65'
p257
sbsba(icolor_base
Bucket
p258
(dp259
g5
F406.0
sg6
(F108.9447253963298
F169.47090757437945
F192.59130560076872
tp260
sg8
g9
(g10
g11
Ntp261
Rp262
(dp263
g15
F66.117454319703754
sg16
g17
sg18
F-13.07673010897059
sg19
F-18.38136762915812
sg20
(lp264
g22
ag16
asg22
S'd65'
p265
sbsba(icolor_base
Bucket
p266
(dp267
g5
F307.0
sg6
(F62.272676520952047
F105.21774113782115
F143.42898556740855
tp268
sg8
g9
(g10
g11
Ntp269
Rp270
(dp271
g15
F42.928125080185154
sg16
g17
sg18
F-3.2030470576154269
sg19
F-25.406111099487362
sg20
(lp272
g22
ag16
asg22
S'd65'
p273
sbsba(icolor_base
Bucket
p274
(dp275
g5
F288.0
sg6
(F199.93537485475886
F240.10958945149073
F85.950143782358907
tp276
sg8
g9
(g10
g11
Ntp277
Rp278
(dp279
g15
F89.519717760138775
sg16
g17
sg18
F-34.023454020415734
sg19
F67.586623542613594
sg20
(lp280
g22
ag16
asg22
S'd65'
p281
sbsbatp282
a(S'photos/Firestone_DBA.png'
p283
(lp284
(icolor_base
Bucket
p285
(dp286
g5
F5088.0
sg6
(F87.564679249701001
F80.374394504389187
F55.04132843114639
tp287
sg8
g9
(g10
g11
Ntp288
Rp289
(dp290
g15
F34.165526057806261
sg16
g17
sg18
F-0.98652239393132168
sg19
F15.958675224523343
sg20
(lp291
g22
ag16
asg22
S'd65'
p292
sbsba(icolor_base
Bucket
p293
(dp294
g5
F3850.0
sg6
(F33.196881631537188
F32.717527768083272
F30.02598535913399
tp295
sg8
g9
(g10
g11
Ntp296
Rp297
(dp298
g15
F12.638454388749672
sg16
g17
sg18
F-0.72045776288548469
sg19
F2.0291924142329663
sg20
(lp299
g22
ag16
asg22
S'd65'
p300
sbsba(icolor_base
Bucket
p301
(dp302
g5
F2695.0
sg6
(F107.75972871177616
F28.295386999171431
F39.260480961802045
tp303
sg8
g9
(g10
g11
Ntp304
Rp305
(dp306
g15
F24.212481194024846
sg16
g17
sg18
F35.914369341415679
sg19
F13.595249796328456
sg20
(lp307
g22
ag16
asg22
S'd65'
p308
sbsba(icolor_base
Bucket
p309
(dp310
g5
F1357.0
sg6
(F147.76472029802534
F146.29292004448402
F105.65310277631126
tp311
sg8
g9
(g10
g11
Ntp312
Rp313
(dp314
g15
F59.793323446618004
sg16
g17
sg18
F-5.9405385221208418
sg19
F21.531214643512374
sg20
(lp315
g22
ag16
asg22
S'd65'
p316
sbsba(icolor_base
Bucket
p317
(dp318
g5
F495.0
sg6
(F60.507699041184623
F36.257186357390985
F38.06373172213717
tp319
sg8
g9
(g10
g11
Ntp320
Rp321
(dp322
g15
F17.432061152394645
sg16
g17
sg18
F12.228788286626491
sg19
F3.6453876626135751
sg20
(lp323
g22
ag16
asg22
S'd65'
p324
sbsba(icolor_base
Bucket
p325
(dp326
g5
F484.0
sg6
(F106.39709593608963
F75.542528011928781
F63.975660595270497
tp327
sg8
g9
(g10
g11
Ntp328
Rp329
(dp330
g15
F35.209698890331417
sg16
g17
sg18
F10.932327917777624
sg19
F12.130482720468105
sg20
(lp331
g22
ag16
asg22
S'd65'
p332
sbsba(icolor_base
Bucket
p333
(dp334
g5
F325.0
sg6
(F105.26884518344963
F113.68484142164601
F81.249454238258309
tp335
sg8
g9
(g10
g11
Ntp336
Rp337
(dp338
g15
F46.48784424442038
sg16
g17
sg18
F-9.5808397173494093
sg19
F17.204751494778357
sg20
(lp339
g22
ag16
asg22
S'd65'
p340
sbsbatp341
a(S'photos/Franziskaner_Weissbier.png'
p342
(lp343
(icolor_base
Bucket
p344
(dp345
g5
F6863.0
sg6
(F28.525296690941722
F40.133489902195031
F43.474980214965569
tp346
sg8
g9
(g10
g11
Ntp347
Rp348
(dp349
g15
F15.239475576555389
sg16
g17
sg18
F-3.8566860019471347
sg19
F-3.529412663841347
sg20
(lp350
g22
ag16
asg22
S'd65'
p351
sbsba(icolor_base
Bucket
p352
(dp353
g5
F3021.0
sg6
(F167.70324204053756
F221.98944857592613
F223.53961319321928
tp354
sg8
g9
(g10
g11
Ntp355
Rp356
(dp357
g15
F84.969504647106305
sg16
g17
sg18
F-16.744197041633434
sg19
F-6.618185274803623
sg20
(lp358
g22
ag16
asg22
S'd65'
p359
sbsba(icolor_base
Bucket
p360
(dp361
g5
F1290.0
sg6
(F61.343521943311842
F82.362554138685965
F85.904924516281199
tp362
sg8
g9
(g10
g11
Ntp363
Rp364
(dp365
g15
F33.346586169205274
sg16
g17
sg18
F-6.969655261961111
sg19
F-4.9761548766693924
sg20
(lp366
g22
ag16
asg22
S'd65'
p367
sbsba(icolor_base
Bucket
p368
(dp369
g5
F738.0
sg6
(F136.04590158597489
F165.12430915237749
F170.66689823564369
tp370
sg8
g9
(g10
g11
Ntp371
Rp372
(dp373
g15
F65.814006978613961
sg16
g17
sg18
F-8.6301832382603134
sg19
F-6.4304669576135343
sg20
(lp374
g22
ag16
asg22
S'd65'
p375
sbsbatp376
a(S'photos/Full_Sail_Amber.png'
p377
(lp378
(icolor_base
Bucket
p379
(dp380
g5
F8579.0
sg6
(F25.100491756022336
F223.1011680879212
F72.333320139823911
tp381
sg8
g9
(g10
g11
Ntp382
Rp383
(dp384
g15
F78.138036530251028
sg16
g17
sg18
F-73.247048627386619
sg19
F59.07448002816129
sg20
(lp385
g22
ag16
asg22
S'd65'
p386
sbsba(icolor_base
Bucket
p387
(dp388
g5
F1641.0
sg6
(F24.757394232481051
F169.16092091807727
F51.207592878418964
tp389
sg8
g9
(g10
g11
Ntp390
Rp391
(dp392
g15
F60.622408732785232
sg16
g17
sg18
F-58.958424621975645
sg19
F48.71123554436646
sg20
(lp393
g22
ag16
asg22
S'd65'
p394
sbsba(icolor_base
Bucket
p395
(dp396
g5
F1018.0
sg6
(F6.3536301445147396
F25.816747257506936
F45.096557813699292
tp397
sg8
g9
(g10
g11
Ntp398
Rp399
(dp400
g15
F8.7125826024637973
sg16
g17
sg18
F-0.037320081796632376
sg19
F-15.137471301323806
sg20
(lp401
g22
ag16
asg22
S'd65'
p402
sbsba(icolor_base
Bucket
p403
(dp404
g5
F940.0
sg6
(F135.99140807303965
F241.96680546094214
F236.9929442528335
tp405
sg8
g9
(g10
g11
Ntp406
Rp407
(dp408
g15
F89.322383564494174
sg16
g17
sg18
F-31.867862611935916
sg19
F-7.1781007500290483
sg20
(lp409
g22
ag16
asg22
S'd65'
p410
sbsba(icolor_base
Bucket
p411
(dp412
g5
F675.0
sg6
(F19.22055770090703
F121.93552207472801
F42.329449248726164
tp413
sg8
g9
(g10
g11
Ntp414
Rp415
(dp416
g15
F44.552287382219589
sg16
g17
sg18
F-45.163950459387372
sg19
F35.084222015870516
sg20
(lp417
g22
ag16
asg22
S'd65'
p418
sbsba(icolor_base
Bucket
p419
(dp420
g5
F397.0
sg6
(F10.88086660101624
F77.947045448378205
F38.554030108845417
tp421
sg8
g9
(g10
g11
Ntp422
Rp423
(dp424
g15
F28.553879514636499
sg16
g17
sg18
F-30.115712312043769
sg19
F17.484192306377423
sg20
(lp425
g22
ag16
asg22
S'd65'
p426
sbsbatp427
a(S'photos/Full_Sail_IPA.png'
p428
(lp429
(icolor_base
Bucket
p430
(dp431
g5
F7819.0
sg6
(F207.66778568884544
F189.82181831284763
F5.0911051984079361
tp432
sg8
g9
(g10
g11
Ntp433
Rp434
(dp435
g15
F76.221924266785777
sg16
g17
sg18
F-9.3938204296938324
sg19
F77.01504585987297
sg20
(lp436
g22
ag16
asg22
S'd65'
p437
sbsba(icolor_base
Bucket
p438
(dp439
g5
F1465.0
sg6
(F251.69604580398385
F248.69199224994679
F12.576498921607191
tp440
sg8
g9
(g10
g11
Ntp441
Rp442
(dp443
g15
F95.361567307310011
sg16
g17
sg18
F-19.837793418916061
sg19
F92.136882957240431
sg20
(lp444
g22
ag16
asg22
S'd65'
p445
sbsba(icolor_base
Bucket
p446
(dp447
g5
F1140.0
sg6
(F154.7758582407821
F144.2224394010162
F25.706415736936805
tp448
sg8
g9
(g10
g11
Ntp449
Rp450
(dp451
g15
F58.965357671551672
sg16
g17
sg18
F-8.5192310038436077
sg19
F57.919908911286619
sg20
(lp452
g22
ag16
asg22
S'd65'
p453
sbsba(icolor_base
Bucket
p454
(dp455
g5
F987.0
sg6
(F15.140431719626338
F27.065098468547863
F39.391458605440015
tp456
sg8
g9
(g10
g11
Ntp457
Rp458
(dp459
g15
F9.2540726167179557
sg16
g17
sg18
F-0.95895889792224631
sg19
F-9.8214455476879632
sg20
(lp460
g22
ag16
asg22
S'd65'
p461
sbsba(icolor_base
Bucket
p462
(dp463
g5
F957.0
sg6
(F151.01439102703853
F223.41289150597598
F228.20425075949856
tp464
sg8
g9
(g10
g11
Ntp465
Rp466
(dp467
g15
F84.459828165855697
sg16
g17
sg18
F-21.084617200744006
sg19
F-9.5885507100659684
sg20
(lp468
g22
ag16
asg22
S'd65'
p469
sbsba(icolor_base
Bucket
p470
(dp471
g5
F661.0
sg6
(F107.69896776928351
F102.71058912045039
F25.548433347356731
tp472
sg8
g9
(g10
g11
Ntp473
Rp474
(dp475
g15
F42.708163429013766
sg16
g17
sg18
F-7.7686866732185891
sg19
F41.573303985798425
sg20
(lp476
g22
ag16
asg22
S'd65'
p477
sbsba(icolor_base
Bucket
p478
(dp479
g5
F378.0
sg6
(F61.337590036865741
F62.771708656955994
F22.234749751032961
tp480
sg8
g9
(g10
g11
Ntp481
Rp482
(dp483
g15
F25.578655200653451
sg16
g17
sg18
F-7.5503361650874625
sg19
F24.333321021792724
sg20
(lp484
g22
ag16
asg22
S'd65'
p485
sbsbatp486
a(S'photos/Heineken.png'
p487
(lp488
(icolor_base
Bucket
p489
(dp490
g5
F6247.0
sg6
(F16.516537591899485
F74.813658071504207
F47.322215987896961
tp491
sg8
g9
(g10
g11
Ntp492
Rp493
(dp494
g15
F27.726537356630388
sg16
g17
sg18
F-26.021099938352389
sg19
F11.490367572202043
sg20
(lp495
g22
ag16
asg22
S'd65'
p496
sbsba(icolor_base
Bucket
p497
(dp498
g5
F4457.0
sg6
(F236.49626912963336
F235.05115055012647
F231.03893731162532
tp499
sg8
g9
(g10
g11
Ntp500
Rp501
(dp502
g15
F93.022802820765847
sg16
g17
sg18
F-0.36867813695290463
sg19
F2.0459632147705076
sg20
(lp503
g22
ag16
asg22
S'd65'
p504
sbsba(icolor_base
Bucket
p505
(dp506
g5
F1032.0
sg6
(F250.7455564297023
F47.757870217770723
F46.633855292234394
tp507
sg8
g9
(g10
g11
Ntp508
Rp509
(dp510
g15
F54.90053305545014
sg16
g17
sg18
F73.275286986470178
sg19
F51.011306875300257
sg20
(lp511
g22
ag16
asg22
S'd65'
p512
sbsba(icolor_base
Bucket
p513
(dp514
g5
F862.0
sg6
(F184.69445094490743
F190.91707083667671
F176.63520816267587
tp515
sg8
g9
(g10
g11
Ntp516
Rp517
(dp518
g15
F76.527392321923074
sg16
g17
sg18
F-4.6391828926241612
sg19
F6.3333814559722423
sg20
(lp519
g22
ag16
asg22
S'd65'
p520
sbsba(icolor_base
Bucket
p521
(dp522
g5
F738.0
sg6
(F62.003334658521929
F111.58844524024566
F89.385325921242043
tp523
sg8
g9
(g10
g11
Ntp524
Rp525
(dp526
g15
F43.261047649718847
sg16
g17
sg18
F-22.717609565165027
sg19
F7.5829661256288983
sg20
(lp527
g22
ag16
asg22
S'd65'
p528
sbsba(icolor_base
Bucket
p529
(dp530
g5
F519.0
sg6
(F124.7056867005749
F148.52026024988206
F130.90154711924791
tp531
sg8
g9
(g10
g11
Ntp532
Rp533
(dp534
g15
F59.428011755706166
sg16
g17
sg18
F-12.191117452001244
sg19
F6.68758824664204
sg20
(lp535
g22
ag16
asg22
S'd65'
p536
sbsbatp537
a(S'photos/Josephs_Brau_Dunkelweizen.png'
p538
(lp539
(icolor_base
Bucket
p540
(dp541
g5
F8121.0
sg6
(F185.22167578078449
F118.5423256232134
F186.14929246890503
tp542
sg8
g9
(g10
g11
Ntp543
Rp544
(dp545
g15
F59.024595576355821
sg16
g17
sg18
F36.585113503846081
sg19
F-24.747172176043474
sg20
(lp546
g22
ag16
asg22
S'd65'
p547
sbsba(icolor_base
Bucket
p548
(dp549
g5
F2012.0
sg6
(F207.58012978048976
F227.8184754775726
F155.99707293894076
tp550
sg8
g9
(g10
g11
Ntp551
Rp552
(dp553
g15
F87.629005163460135
sg16
g17
sg18
F-18.342704260935871
sg19
F33.008142909689539
sg20
(lp554
g22
ag16
asg22
S'd65'
p555
sbsba(icolor_base
Bucket
p556
(dp557
g5
F1838.0
sg6
(F22.374307091618487
F28.786031476888091
F40.953835114126754
tp558
sg8
g9
(g10
g11
Ntp559
Rp560
(dp561
g15
F10.626237714470211
sg16
g17
sg18
F0.69251915224788352
sg19
F-9.1334242073117018
sg20
(lp562
g22
ag16
asg22
S'd65'
p563
sbsba(icolor_base
Bucket
p564
(dp565
g5
F1270.0
sg6
(F131.93181360335103
F89.401847608712259
F130.37040143650836
tp566
sg8
g9
(g10
g11
Ntp567
Rp568
(dp569
g15
F43.745043770447879
sg16
g17
sg18
F24.835501292811923
sg19
F-15.848832241728372
sg20
(lp570
g22
ag16
asg22
S'd65'
p571
sbsba(icolor_base
Bucket
p572
(dp573
g5
F451.0
sg6
(F50.202167627577772
F39.362117252099985
F65.172887757592534
tp574
sg8
g9
(g10
g11
Ntp575
Rp576
(dp577
g15
F17.967463398416342
sg16
g17
sg18
F11.513493317224732
sg19
F-14.586432773206237
sg20
(lp578
g22
ag16
asg22
S'd65'
p579
sbsba(icolor_base
Bucket
p580
(dp581
g5
F331.0
sg6
(F226.81671264817629
F162.76310537465449
F231.11718483382379
tp582
sg8
g9
(g10
g11
Ntp583
Rp584
(dp585
g15
F75.011502231434378
sg16
g17
sg18
F34.706800893068824
sg19
F-24.898335752525735
sg20
(lp586
g22
ag16
asg22
S'd65'
p587
sbsbatp588
a(S'photos/Kona_Fire_Rock.png'
p589
(lp590
(icolor_base
Bucket
p591
(dp592
g5
F4395.0
sg6
(F218.79290810486404
F172.99278045509533
F42.851879706575424
tp593
sg8
g9
(g10
g11
Ntp594
Rp595
(dp596
g15
F72.973339604028226
sg16
g17
sg18
F5.0159048987018506
sg19
F67.437275983577422
sg20
(lp597
g22
ag16
asg22
S'd65'
p598
sbsba(icolor_base
Bucket
p599
(dp600
g5
F1903.0
sg6
(F64.908665295180199
F50.474896113980165
F26.151124376364141
tp601
sg8
g9
(g10
g11
Ntp602
Rp603
(dp604
g15
F21.871049711630349
sg16
g17
sg18
F3.2206774522552384
sg19
F17.735144685457033
sg20
(lp605
g22
ag16
asg22
S'd65'
p606
sbsba(icolor_base
Bucket
p607
(dp608
g5
F375.0
sg6
(F160.60315865566002
F120.36402475406643
F38.314920171586721
tp609
sg8
g9
(g10
g11
Ntp610
Rp611
(dp612
g15
F53.11449991440486
sg16
g17
sg18
F7.9891431387318912
sg19
F48.659122661411345
sg20
(lp613
g22
ag16
asg22
S'd65'
p614
sbsba(icolor_base
Bucket
p615
(dp616
g5
F298.0
sg6
(F120.04392792100057
F82.343111748719437
F29.394546046666616
tp617
sg8
g9
(g10
g11
Ntp618
Rp619
(dp620
g15
F38.051681426810326
sg16
g17
sg18
F10.570137286135651
sg19
F36.072021474290239
sg20
(lp621
g22
ag16
asg22
S'd65'
p622
sbsba(icolor_base
Bucket
p623
(dp624
g5
F117.0
sg6
(F247.8379995231831
F222.91878072665884
F129.67535466322977
tp625
sg8
g9
(g10
g11
Ntp626
Rp627
(dp628
g15
F89.085452393449643
sg16
g17
sg18
F-3.3033954118770747
sg19
F48.450437027740634
sg20
(lp629
g22
ag16
asg22
S'd65'
p630
sbsba(icolor_base
Bucket
p631
(dp632
g5
F42.0
sg6
(F252.26501567398117
F244.77460815047021
F206.31098746081506
tp633
sg8
g9
(g10
g11
Ntp634
Rp635
(dp636
g15
F96.186105060988865
sg16
g17
sg18
F-3.8567260341720866
sg19
F19.644914040060367
sg20
(lp637
g22
ag16
asg22
S'd65'
p638
sbsbatp639
a(S'photos/Kona_Longboard.png'
p640
(lp641
(icolor_base
Bucket
p642
(dp643
g5
F4069.0
sg6
(F220.16188829023858
F61.949844232840668
F49.733054514494491
tp644
sg8
g9
(g10
g11
Ntp645
Rp646
(dp647
g15
F50.5640657876544
sg16
g17
sg18
F60.249963652749038
sg19
F43.196822246731926
sg20
(lp648
g22
ag16
asg22
S'd65'
p649
sbsba(icolor_base
Bucket
p650
(dp651
g5
F1873.0
sg6
(F214.88535217895028
F203.9533342339094
F187.84897141655236
tp652
sg8
g9
(g10
g11
Ntp653
Rp654
(dp655
g15
F82.520563447884243
sg16
g17
sg18
F1.1227341753575204
sg19
F9.3296859383563024
sg20
(lp656
g22
ag16
asg22
S'd65'
p657
sbsba(icolor_base
Bucket
p658
(dp659
g5
F512.0
sg6
(F225.39865448657102
F128.954568551558
F116.10663467086044
tp660
sg8
g9
(g10
g11
Ntp661
Rp662
(dp663
g15
F64.138281965832419
sg16
g17
sg18
F35.579640029102578
sg19
F23.221707220811872
sg20
(lp664
g22
ag16
asg22
S'd65'
p665
sbsba(icolor_base
Bucket
p666
(dp667
g5
F270.0
sg6
(F223.74980637852835
F174.43249332865813
F141.06094537738818
tp668
sg8
g9
(g10
g11
Ntp669
Rp670
(dp671
g15
F74.852986586155197
sg16
g17
sg18
F13.852295347725418
sg19
F23.946381400814577
sg20
(lp672
g22
ag16
asg22
S'd65'
p673
sbsba(icolor_base
Bucket
p674
(dp675
g5
F223.0
sg6
(F230.8890071713802
F182.55040031673644
F179.29081362874774
tp676
sg8
g9
(g10
g11
Ntp677
Rp678
(dp679
g15
F78.527231932375514
sg16
g17
sg18
F16.712960836228032
sg19
F8.643089728143849
sg20
(lp680
g22
ag16
asg22
S'd65'
p681
sbsba(icolor_base
Bucket
p682
(dp683
g5
F205.0
sg6
(F165.29825038089834
F34.332083526814408
F18.768052853905338
tp684
sg8
g9
(g10
g11
Ntp685
Rp686
(dp687
g15
F36.352189779989665
sg16
g17
sg18
F51.609346532363652
sg19
F41.926628620214082
sg20
(lp688
g22
ag16
asg22
S'd65'
p689
sbsbatp690
a(S'photos/Long_Hammer_IPA.png'
p691
(lp692
(icolor_base
Bucket
p693
(dp694
g5
F3955.0
sg6
(F31.072506901758288
F38.004033174848267
F103.75336318908205
tp695
sg8
g9
(g10
g11
Ntp696
Rp697
(dp698
g15
F18.700060613860167
sg16
g17
sg18
F20.743348684141878
sg19
F-39.690673600008239
sg20
(lp699
g22
ag16
asg22
S'd65'
p700
sbsba(icolor_base
Bucket
p701
(dp702
g5
F939.0
sg6
(F227.32585263864428
F230.2522404023959
F230.0472814430851
tp703
sg8
g9
(g10
g11
Ntp704
Rp705
(dp706
g15
F91.070035685103505
sg16
g17
sg18
F-1.0045066364789967
sg19
F-0.36026373586093285
sg20
(lp707
g22
ag16
asg22
S'd65'
p708
sbsba(icolor_base
Bucket
p709
(dp710
g5
F887.0
sg6
(F152.9416292112117
F198.6539660456055
F65.409372516690169
tp711
sg8
g9
(g10
g11
Ntp712
Rp713
(dp714
g15
F74.825001932553548
sg16
g17
sg18
F-34.771996846407028
sg19
F59.528443320175462
sg20
(lp715
g22
ag16
asg22
S'd65'
p716
sbsbatp717
a(S'photos/Lost_Coast_Downtown_Brown.png'
p718
(lp719
(icolor_base
Bucket
p720
(dp721
g5
F4562.0
sg6
(F227.99604429419151
F179.9379280281519
F98.144323928158457
tp722
sg8
g9
(g10
g11
Ntp723
Rp724
(dp725
g15
F76.081897610628175
sg16
g17
sg18
F8.1202896748720494
sg19
F47.892071992649136
sg20
(lp726
g22
ag16
asg22
S'd65'
p727
sbsba(icolor_base
Bucket
p728
(dp729
g5
F1118.0
sg6
(F169.86059555412197
F128.77453374450459
F68.394172166809085
tp730
sg8
g9
(g10
g11
Ntp731
Rp732
(dp733
g15
F56.747708156730752
sg16
g17
sg18
F8.7929730106900408
sg19
F38.669375019532524
sg20
(lp734
g22
ag16
asg22
S'd65'
p735
sbsba(icolor_base
Bucket
p736
(dp737
g5
F699.0
sg6
(F117.59429987123231
F81.080369923817329
F39.265031232128273
tp738
sg8
g9
(g10
g11
Ntp739
Rp740
(dp741
g15
F37.632586951224738
sg16
g17
sg18
F10.852156851570093
sg19
F30.370953813716074
sg20
(lp742
g22
ag16
asg22
S'd65'
p743
sbsba(icolor_base
Bucket
p744
(dp745
g5
F538.0
sg6
(F199.93914508277473
F197.14320063388215
F187.35771155370338
tp746
sg8
g9
(g10
g11
Ntp747
Rp748
(dp749
g15
F79.499797240903803
sg16
g17
sg18
F-0.73188838438054127
sg19
F5.3714941184174636
sg20
(lp750
g22
ag16
asg22
S'd65'
p751
sbsbatp752
a(S'photos/Mad_River_Serious_Madness_Black_Ale.png'
p753
(lp754
(icolor_base
Bucket
p755
(dp756
g5
F3104.0
sg6
(F212.25928902600162
F193.56964328658478
F169.8063504234982
tp757
sg8
g9
(g10
g11
Ntp758
Rp759
(dp760
g15
F79.319094405874267
sg16
g17
sg18
F2.4838320035892036
sg19
F14.371860231132484
sg20
(lp761
g22
ag16
asg22
S'd65'
p762
sbsba(icolor_base
Bucket
p763
(dp764
g5
F2257.0
sg6
(F156.83346901546713
F139.58975522711555
F119.06529213352901
tp765
sg8
g9
(g10
g11
Ntp766
Rp767
(dp768
g15
F59.21117827729465
sg16
g17
sg18
F2.9160887998100349
sg19
F13.553357954393142
sg20
(lp769
g22
ag16
asg22
S'd65'
p770
sbsba(icolor_base
Bucket
p771
(dp772
g5
F1557.0
sg6
(F101.78173610526342
F86.922198931437407
F69.269498343427529
tp773
sg8
g9
(g10
g11
Ntp774
Rp775
(dp776
g15
F37.969735334731539
sg16
g17
sg18
F3.1133030218537803
sg19
F12.744156498428028
sg20
(lp777
g22
ag16
asg22
S'd65'
p778
sbsba(icolor_base
Bucket
p779
(dp780
g5
F60.0
sg6
(F249.24375982042645
F243.81324354657681
F232.22942760942755
tp781
sg8
g9
(g10
g11
Ntp782
Rp783
(dp784
g15
F96.273026749407791
sg16
g17
sg18
F-0.36775030450303392
sg19
F6.3576106028087276
sg20
(lp785
g22
ag16
asg22
S'd65'
p786
sbsbatp787
a(S'photos/New_Belgium_Mighty_Arrow.png'
p788
(lp789
(icolor_base
Bucket
p790
(dp791
g5
F4316.0
sg6
(F246.04680634608772
F96.718828011344726
F72.180618019271407
tp792
sg8
g9
(g10
g11
Ntp793
Rp794
(dp795
g15
F60.440033950308745
sg16
g17
sg18
F55.694655069505551
sg19
F43.507711620848212
sg20
(lp796
g22
ag16
asg22
S'd65'
p797
sbsba(icolor_base
Bucket
p798
(dp799
g5
F2259.0
sg6
(F253.10221156328944
F149.89115419006791
F70.69785615909538
tp800
sg8
g9
(g10
g11
Ntp801
Rp802
(dp803
g15
F71.659640584955241
sg16
g17
sg18
F32.540513335607926
sg19
F56.535953966865492
sg20
(lp804
g22
ag16
asg22
S'd65'
p805
sbsba(icolor_base
Bucket
p806
(dp807
g5
F297.0
sg6
(F244.92034146901324
F216.54935408879405
F196.91931420530622
tp808
sg8
g9
(g10
g11
Ntp809
Rp810
(dp811
g15
F88.481469799532874
sg16
g17
sg18
F6.5910840309307268
sg19
F13.392867391722319
sg20
(lp812
g22
ag16
asg22
S'd65'
p813
sbsba(icolor_base
Bucket
p814
(dp815
g5
F131.0
sg6
(F246.18021055938016
F159.0958579737339
F150.30125786813809
tp816
sg8
g9
(g10
g11
Ntp817
Rp818
(dp819
g15
F73.929565762464748
sg16
g17
sg18
F31.313314071820699
sg19
F18.175878979317517
sg20
(lp820
g22
ag16
asg22
S'd65'
p821
sbsba(icolor_base
Bucket
p822
(dp823
g5
F102.0
sg6
(F214.75536924618373
F52.909294512877935
F42.57146519714739
tp824
sg8
g9
(g10
g11
Ntp825
Rp826
(dp827
g15
F48.475175716690998
sg16
g17
sg18
F61.516665777180066
sg19
F44.489685758363848
sg20
(lp828
g22
ag16
asg22
S'd65'
p829
sbsba(icolor_base
Bucket
p830
(dp831
g5
F47.0
sg6
(F235.19009287925698
F163.54582043343655
F124.98668730650155
tp832
sg8
g9
(g10
g11
Ntp833
Rp834
(dp835
g15
F73.348198892307167
sg16
g17
sg18
F21.811376130269178
sg19
F30.733017069767143
sg20
(lp836
g22
ag16
asg22
S'd65'
p837
sbsbatp838
a(S'photos/North_Coast_Old_Stock_Ale.png'
p839
(lp840
(icolor_base
Bucket
p841
(dp842
g5
F3031.0
sg6
(F43.889896559321009
F38.686575439265056
F28.703548868851126
tp843
sg8
g9
(g10
g11
Ntp844
Rp845
(dp846
g15
F15.877332277101775
sg16
g17
sg18
F0.31275929629498433
sg19
F7.4649319434171799
sg20
(lp847
g22
ag16
asg22
S'd65'
p848
sbsba(icolor_base
Bucket
p849
(dp850
g5
F1551.0
sg6
(F221.19260910943379
F184.97078203200479
F120.37906686032099
tp851
sg8
g9
(g10
g11
Ntp852
Rp853
(dp854
g15
F76.937475400683482
sg16
g17
sg18
F4.5305726224601495
sg19
F37.716931205276929
sg20
(lp855
g22
ag16
asg22
S'd65'
p856
sbsba(icolor_base
Bucket
p857
(dp858
g5
F1218.0
sg6
(F87.830275870951709
F61.110293425116133
F42.851831003879845
tp859
sg8
g9
(g10
g11
Ntp860
Rp861
(dp862
g15
F28.345444111692487
sg16
g17
sg18
F9.3623378198160747
sg19
F15.777729336460556
sg20
(lp863
g22
ag16
asg22
S'd65'
p864
sbsba(icolor_base
Bucket
p865
(dp866
g5
F562.0
sg6
(F142.02743491046894
F104.5390841240168
F64.299216367438049
tp867
sg8
g9
(g10
g11
Ntp868
Rp869
(dp870
g15
F47.268239415264418
sg16
g17
sg18
F9.7349706530696078
sg19
F28.660413431634058
sg20
(lp871
g22
ag16
asg22
S'd65'
p872
sbsbatp873
a(S'photos/North_Coast_Pranqster.png'
p874
(lp875
(icolor_base
Bucket
p876
(dp877
g5
F3366.0
sg6
(F46.341522915450007
F42.290041411818414
F32.926786122007393
tp878
sg8
g9
(g10
g11
Ntp879
Rp880
(dp881
g15
F17.21021158743077
sg16
g17
sg18
F-0.026293207462169121
sg19
F6.5540552269737873
sg20
(lp882
g22
ag16
asg22
S'd65'
p883
sbsba(icolor_base
Bucket
p884
(dp885
g5
F1409.0
sg6
(F90.845839879479371
F68.325934339336939
F49.125355032470054
tp886
sg8
g9
(g10
g11
Ntp887
Rp888
(dp889
g15
F30.832029973280726
sg16
g17
sg18
F7.0793773694783066
sg19
F15.326500932633314
sg20
(lp890
g22
ag16
asg22
S'd65'
p891
sbsba(icolor_base
Bucket
p892
(dp893
g5
F1345.0
sg6
(F230.31908082656645
F183.49510062430278
F112.02194308393163
tp894
sg8
g9
(g10
g11
Ntp895
Rp896
(dp897
g15
F77.198263616588122
sg16
g17
sg18
F8.5066932657905099
sg19
F42.315580170570868
sg20
(lp898
g22
ag16
asg22
S'd65'
p899
sbsba(icolor_base
Bucket
p900
(dp901
g5
F587.0
sg6
(F159.85529516534291
F115.97629258368565
F68.223474593645406
tp902
sg8
g9
(g10
g11
Ntp903
Rp904
(dp905
g15
F52.267361488809286
sg16
g17
sg18
F11.741747779595968
sg19
F33.0533396111624
sg20
(lp906
g22
ag16
asg22
S'd65'
p907
sbsbatp908
a(S'photos/North_Coast_Scrimshaw_Pilsner.png'
p909
(lp910
(icolor_base
Bucket
p911
(dp912
g5
F8337.0
sg6
(F224.7797381832641
F230.4257367763918
F232.98825787888495
tp913
sg8
g9
(g10
g11
Ntp914
Rp915
(dp916
g15
F91.00035096156239
sg16
g17
sg18
F-1.1226853134537751
sg19
F-2.0482734708576311
sg20
(lp917
g22
ag16
asg22
S'd65'
p918
sbsba(icolor_base
Bucket
p919
(dp920
g5
F1737.0
sg6
(F22.742555950159801
F16.233246429530766
F19.172160785596262
tp921
sg8
g9
(g10
g11
Ntp922
Rp923
(dp924
g15
g113
(g117
S'\xa0O\x1c\xa6\xbd\xab\x15@'
p925
tp926
Rp927
sg16
g17
sg18
g113
(g117
S'\x8e\xfb\x1c\x95z7\x0c@'
p928
tp929
Rp930
sg19
g113
(g117
S'\xe0\xeb\x06\x1a1<\xe4\xbf'
p931
tp932
Rp933
sg20
(lp934
g22
ag16
asg22
S'd65'
p935
sbsba(icolor_base
Bucket
p936
(dp937
g5
F1516.0
sg6
(F159.31915492863311
F148.28176207022767
F150.80680108086526
tp938
sg8
g9
(g10
g11
Ntp939
Rp940
(dp941
g15
F62.326017459871736
sg16
g17
sg18
F4.6001093571001466
sg19
F-0.12516956940347157
sg20
(lp942
g22
ag16
asg22
S'd65'
p943
sbsba(icolor_base
Bucket
p944
(dp945
g5
F1176.0
sg6
(F110.14174145143598
F96.90047477525296
F93.750464793856409
tp946
sg8
g9
(g10
g11
Ntp947
Rp948
(dp949
g15
F42.265960686795836
sg16
g17
sg18
F4.6407911040862171
sg19
F3.6071840673215783
sg20
(lp950
g22
ag16
asg22
S'd65'
p951
sbsba(icolor_base
Bucket
p952
(dp953
g5
F760.0
sg6
(F59.890826279842834
F53.420531583717406
F56.835240486811834
tp954
sg8
g9
(g10
g11
Ntp955
Rp956
(dp957
g15
F23.006839692841766
sg16
g17
sg18
F3.9537726007199128
sg19
F-1.381351942945741
sg20
(lp958
g22
ag16
asg22
S'd65'
p959
sbsba(icolor_base
Bucket
p960
(dp961
g5
F500.0
sg6
(F233.71310654535731
F210.10495458769475
F207.69744106690771
tp962
sg8
g9
(g10
g11
Ntp963
Rp964
(dp965
g15
F86.07673989878397
sg16
g17
sg18
F7.997208420561785
sg19
F4.0220030334297441
sg20
(lp966
g22
ag16
asg22
S'd65'
p967
sbsbatp968
a(S'photos/Petes_Wicked_Ale.png'
p969
(lp970
(icolor_base
Bucket
p971
(dp972
g5
F2617.0
sg6
(F49.697875169870194
F37.963476811699429
F29.659761087540097
tp973
sg8
g9
(g10
g11
Ntp974
Rp975
(dp976
g15
F16.296243256587509
sg16
g17
sg18
F4.2054990361289626
sg19
F7.4562134781594906
sg20
(lp977
g22
ag16
asg22
S'd65'
p978
sbsba(icolor_base
Bucket
p979
(dp980
g5
F1820.0
sg6
(F218.48429708470701
F78.07752352889726
F61.549943663113424
tp981
sg8
g9
(g10
g11
Ntp982
Rp983
(dp984
g15
F52.625711110845046
sg16
g17
sg18
F53.868404625103061
sg19
F38.807524397851054
sg20
(lp985
g22
ag16
asg22
S'd65'
p986
sbsba(icolor_base
Bucket
p987
(dp988
g5
F799.0
sg6
(F238.070926939684
F200.79254100979975
F134.92832663963594
tp989
sg8
g9
(g10
g11
Ntp990
Rp991
(dp992
g15
F82.754524420796884
sg16
g17
sg18
F4.4867020201824204
sg19
F37.791984502639473
sg20
(lp993
g22
ag16
asg22
S'd65'
p994
sbsba(icolor_base
Bucket
p995
(dp996
g5
F503.0
sg6
(F154.91594271185528
F49.160705388457195
F39.464333957680921
tp997
sg8
g9
(g10
g11
Ntp998
Rp999
(dp1000
g15
F36.580729765517347
sg16
g17
sg18
F43.456656902368273
sg19
F30.736611567775483
sg20
(lp1001
g22
ag16
asg22
S'd65'
p1002
sbsba(icolor_base
Bucket
p1003
(dp1004
g5
F462.0
sg6
(F88.149977387707807
F39.412934313465207
F33.724520406673783
tp1005
sg8
g9
(g10
g11
Ntp1006
Rp1007
(dp1008
g15
F22.449595699644426
sg16
g17
sg18
F22.100635766522103
sg19
F13.958385758260761
sg20
(lp1009
g22
ag16
asg22
S'd65'
p1010
sbsba(icolor_base
Bucket
p1011
(dp1012
g5
F343.0
sg6
(F234.69004031185236
F158.85803465127105
F110.34120428333314
tp1013
sg8
g9
(g10
g11
Ntp1014
Rp1015
(dp1016
g15
F71.951716731233162
sg16
g17
sg18
F23.105410540304515
sg19
F36.902963371681686
sg20
(lp1017
g22
ag16
asg22
S'd65'
p1018
sbsba(icolor_base
Bucket
p1019
(dp1020
g5
F189.0
sg6
(F189.09226444022244
F151.18526562040256
F95.462817613552403
tp1021
sg8
g9
(g10
g11
Ntp1022
Rp1023
(dp1024
g15
F64.787283844033226
sg16
g17
sg18
F7.1272428178449925
sg19
F34.749892940281526
sg20
(lp1025
g22
ag16
asg22
S'd65'
p1026
sbsba(icolor_base
Bucket
p1027
(dp1028
g5
F143.0
sg6
(F98.464664090563886
F68.668917936990084
F42.374450888428775
tp1029
sg8
g9
(g10
g11
Ntp1030
Rp1031
(dp1032
g15
F31.85349184616193
sg16
g17
sg18
F8.9833795464190906
sg19
F21.134717331870778
sg20
(lp1033
g22
ag16
asg22
S'd65'
p1034
sbsbatp1035
a(S'photos/Plzensky_Prazdroj.png'
p1036
(lp1037
(icolor_base
Bucket
p1038
(dp1039
g5
F5196.0
sg6
(F102.79480026313139
F138.28625071363973
F139.97097580724042
tp1040
sg8
g9
(g10
g11
Ntp1041
Rp1042
(dp1043
g15
F55.024188824987135
sg16
g17
sg18
F-11.674630796127683
sg19
F-5.0552606538469824
sg20
(lp1044
g22
ag16
asg22
S'd65'
p1045
sbsba(icolor_base
Bucket
p1046
(dp1047
g5
F3501.0
sg6
(F69.484555373801484
F90.700946638432001
F69.780413729487819
tp1048
sg8
g9
(g10
g11
Ntp1049
Rp1050
(dp1051
g15
F36.346392661814924
sg16
g17
sg18
F-13.090426063846971
sg19
F9.439519758940861
sg20
(lp1052
g22
ag16
asg22
S'd65'
p1053
sbsba(icolor_base
Bucket
p1054
(dp1055
g5
F3223.0
sg6
(F98.447536104562531
F124.20179905494936
F88.698666332356709
tp1056
sg8
g9
(g10
g11
Ntp1057
Rp1058
(dp1059
g15
F49.170572764776892
sg16
g17
sg18
F-16.552030533092733
sg19
F16.119827787284358
sg20
(lp1060
g22
ag16
asg22
S'd65'
p1061
sbsba(icolor_base
Bucket
p1062
(dp1063
g5
F2312.0
sg6
(F138.61753593937868
F169.4104119941949
F128.00595020263214
tp1064
sg8
g9
(g10
g11
Ntp1065
Rp1066
(dp1067
g15
F66.076587353799198
sg16
g17
sg18
F-18.216451537648449
sg19
F17.839327618340882
sg20
(lp1068
g22
ag16
asg22
S'd65'
p1069
sbsba(icolor_base
Bucket
p1070
(dp1071
g5
F228.0
sg6
(F94.989744684644748
F96.973518740613414
F69.25539530002689
tp1072
sg8
g9
(g10
g11
Ntp1073
Rp1074
(dp1075
g15
F40.265910767811874
sg16
g17
sg18
F-5.949007191309363
sg19
F15.75290584648117
sg20
(lp1076
g22
ag16
asg22
S'd65'
p1077
sbsba(icolor_base
Bucket
p1078
(dp1079
g5
I23
sg6
(F139.0
F158.0
F102.0
tp1080
sg8
g9
(g10
g11
Ntp1081
Rp1082
(dp1083
g15
F62.424661218396494
sg16
g17
sg18
F-16.520410597141822
sg19
F27.093816103658909
sg20
(lp1084
g22
ag16
asg22
S'd65'
p1085
sbsba(icolor_base
Bucket
p1086
(dp1087
g5
I11
sg6
(F95.0
F115.0
F127.0
tp1088
sg8
g9
(g10
g11
Ntp1089
Rp1090
(dp1091
g15
F47.269978585082235
sg16
g17
sg18
F-4.4494869673628035
sg19
F-9.0434116315415878
sg20
(lp1092
g22
ag16
asg22
S'd65'
p1093
sbsbatp1094
a(S'photos/Primo_Island_Lager.png'
p1095
(lp1096
(icolor_base
Bucket
p1097
(dp1098
g5
F2798.0
sg6
(F217.34616661824018
F221.41553422041366
F223.0420095190326
tp1099
sg8
g9
(g10
g11
Ntp1100
Rp1101
(dp1102
g15
F87.868431536728991
sg16
g17
sg18
F-0.98141611766927594
sg19
F-1.4578122979194363
sg20
(lp1103
g22
ag16
asg22
S'd65'
p1104
sbsba(icolor_base
Bucket
p1105
(dp1106
g5
F1640.0
sg6
(F23.202903851655478
F25.858017246510322
F23.799229995821268
tp1107
sg8
g9
(g10
g11
Ntp1108
Rp1109
(dp1110
g15
F8.8817208037998725
sg16
g17
sg18
F-1.9573748243412181
sg19
F0.9069593491650263
sg20
(lp1111
g22
ag16
asg22
S'd65'
p1112
sbsba(icolor_base
Bucket
p1113
(dp1114
g5
F817.0
sg6
(F89.846420200610481
F184.71424683137141
F236.40231537094093
tp1115
sg8
g9
(g10
g11
Ntp1116
Rp1117
(dp1118
g15
F71.504063585771689
sg16
g17
sg18
F-13.07308379571065
sg19
F-33.792305549071266
sg20
(lp1119
g22
ag16
asg22
S'd65'
p1120
sbsbatp1121
a(S'photos/Pyramid_Thunderhead_IPA.png'
p1122
(lp1123
(icolor_base
Bucket
p1124
(dp1125
g5
F4570.0
sg6
(F37.772663806621978
F36.55095189802347
F25.715942209016156
tp1126
sg8
g9
(g10
g11
Ntp1127
Rp1128
(dp1129
g15
F14.45568316804944
sg16
g17
sg18
F-1.8797799918229552
sg19
F7.5155218783546252
sg20
(lp1130
g22
ag16
asg22
S'd65'
p1131
sbsba(icolor_base
Bucket
p1132
(dp1133
g5
F1404.0
sg6
(F235.5166674053815
F196.73997831012261
F80.295317001941271
tp1134
sg8
g9
(g10
g11
Ntp1135
Rp1136
(dp1137
g15
F80.931215517189088
sg16
g17
sg18
F1.376586422809245
sg19
F61.800866563226677
sg20
(lp1138
g22
ag16
asg22
S'd65'
p1139
sbsba(icolor_base
Bucket
p1140
(dp1141
g5
F400.0
sg6
(F189.18299849048964
F149.92747130694096
F55.555846289695971
tp1142
sg8
g9
(g10
g11
Ntp1143
Rp1144
(dp1145
g15
F64.094900710903858
sg16
g17
sg18
F4.7838955991664207
sg19
F53.02961683121913
sg20
(lp1146
g22
ag16
asg22
S'd65'
p1147
sbsba(icolor_base
Bucket
p1148
(dp1149
g5
F369.0
sg6
(F84.289372663862522
F61.888328466575707
F25.95612341763163
tp1150
sg8
g9
(g10
g11
Ntp1151
Rp1152
(dp1153
g15
F27.858584016203949
sg16
g17
sg18
F5.1116307121669422
sg19
F25.364226904508147
sg20
(lp1154
g22
ag16
asg22
S'd65'
p1155
sbsba(icolor_base
Bucket
p1156
(dp1157
g5
F257.0
sg6
(F134.06356781011434
F96.692943979315231
F33.72435614765579
tp1158
sg8
g9
(g10
g11
Ntp1159
Rp1160
(dp1161
g15
F43.849049308340142
sg16
g17
sg18
F8.5499788390096541
sg19
F40.170627291838024
sg20
(lp1162
g22
ag16
asg22
S'd65'
p1163
sbsba(icolor_base
Bucket
p1164
(dp1165
g5
F93.0
sg6
(F177.1217547594201
F120.25736848854113
F41.389884238512074
tp1166
sg8
g9
(g10
g11
Ntp1167
Rp1168
(dp1169
g15
F55.012328805388265
sg16
g17
sg18
F15.330606862439089
sg19
F49.890614977685331
sg20
(lp1170
g22
ag16
asg22
S'd65'
p1171
sbsbatp1172
a(S'photos/Red_Nectar_Nectar_Ale.png'
p1173
(lp1174
(icolor_base
Bucket
p1175
(dp1176
g5
F6328.0
sg6
(F200.88401070616689
F201.16413980278131
F192.08175673274215
tp1177
sg8
g9
(g10
g11
Ntp1178
Rp1179
(dp1180
g15
F80.736914452162836
sg16
g17
sg18
F-1.6131436125118026
sg19
F4.4846662942807258
sg20
(lp1181
g22
ag16
asg22
S'd65'
p1182
sbsba(icolor_base
Bucket
p1183
(dp1184
g5
F236.0
sg6
(F183.07501559001358
F204.67664820534924
F152.88920764123907
tp1185
sg8
g9
(g10
g11
Ntp1186
Rp1187
(dp1188
g15
F79.630582330905156
sg16
g17
sg18
F-16.50980458842821
sg19
F23.492931236909254
sg20
(lp1189
g22
ag16
asg22
S'd65'
p1190
sbsba(icolor_base
Bucket
p1191
(dp1192
g5
F141.0
sg6
(F153.60733030354302
F150.35874451681906
F145.6358584910929
tp1193
sg8
g9
(g10
g11
Ntp1194
Rp1195
(dp1196
g15
F62.302942516615914
sg16
g17
sg18
F0.71226588283562764
sg19
F2.6180344706050462
sg20
(lp1197
g22
ag16
asg22
S'd65'
p1198
sbsbatp1199
a(S'photos/Redhook_ESB.png'
p1200
(lp1201
(icolor_base
Bucket
p1202
(dp1203
g5
F3594.0
sg6
(F223.39086471103795
F60.465811745471001
F45.400825809184887
tp1204
sg8
g9
(g10
g11
Ntp1205
Rp1206
(dp1207
g15
F50.819218080383337
sg16
g17
sg18
F61.704618946996639
sg19
F46.266836532864595
sg20
(lp1208
g22
ag16
asg22
S'd65'
p1209
sbsba(icolor_base
Bucket
p1210
(dp1211
g5
F1120.0
sg6
(F227.01638636132017
F165.23935411170211
F94.754053024102419
tp1212
sg8
g9
(g10
g11
Ntp1213
Rp1214
(dp1215
g15
F72.275220334455824
sg16
g17
sg18
F15.450781801734703
sg19
F44.829965009750559
sg20
(lp1216
g22
ag16
asg22
S'd65'
p1217
sbsba(icolor_base
Bucket
p1218
(dp1219
g5
F939.0
sg6
(F213.48368029300107
F203.54963293821154
F194.39454234143244
tp1220
sg8
g9
(g10
g11
Ntp1221
Rp1222
(dp1223
g15
F82.50079602490257
sg16
g17
sg18
F1.3930364395829953
sg19
F6.0811643685640293
sg20
(lp1224
g22
ag16
asg22
S'd65'
p1225
sbsba(icolor_base
Bucket
p1226
(dp1227
g5
F779.0
sg6
(F230.16179247817928
F115.83582748824469
F71.057681324731689
tp1228
sg8
g9
(g10
g11
Ntp1229
Rp1230
(dp1231
g15
F61.457271620802985
sg16
g17
sg18
F40.880401807124876
sg19
F44.530634325262788
sg20
(lp1232
g22
ag16
asg22
S'd65'
p1233
sbsba(icolor_base
Bucket
p1234
(dp1235
g5
F292.0
sg6
(F168.70177221929799
F35.53367311784541
F24.414265296370559
tp1236
sg8
g9
(g10
g11
Ntp1237
Rp1238
(dp1239
g15
F37.41704591992255
sg16
g17
sg18
F52.341617882232349
sg19
F40.72433034771695
sg20
(lp1240
g22
ag16
asg22
S'd65'
p1241
sbsba(icolor_base
Bucket
p1242
(dp1243
g5
F200.0
sg6
(F229.80670888880175
F161.73703458724214
F163.21785531389793
tp1244
sg8
g9
(g10
g11
Ntp1245
Rp1246
(dp1247
g15
F73.095801836899739
sg16
g17
sg18
F25.33498942602208
sg19
F9.6061421031842453
sg20
(lp1248
g22
ag16
asg22
S'd65'
p1249
sbsba(icolor_base
Bucket
p1250
(dp1251
g5
F124.0
sg6
(F222.10524508954518
F101.2026932597141
F103.50467995216243
tp1252
sg8
g9
(g10
g11
Ntp1253
Rp1254
(dp1255
g15
F57.88465392204138
sg16
g17
sg18
F47.524850509159997
sg19
F21.583287414238207
sg20
(lp1256
g22
ag16
asg22
S'd65'
p1257
sbsbatp1258
a(S'photos/RedStripe.png'
p1259
(lp1260
(icolor_base
Bucket
p1261
(dp1262
g5
F6125.0
sg6
(F250.59873088110547
F64.82447219889832
F56.939866332470764
tp1263
sg8
g9
(g10
g11
Ntp1264
Rp1265
(dp1266
g15
F56.674084893572171
sg16
g17
sg18
F68.836491184571187
sg19
F47.603390526082897
sg20
(lp1267
g22
ag16
asg22
S'd65'
p1268
sbsba(icolor_base
Bucket
p1269
(dp1270
g5
F3568.0
sg6
(F238.83200656066174
F231.48160681001252
F230.9369754219702
tp1271
sg8
g9
(g10
g11
Ntp1272
Rp1273
(dp1274
g15
F92.252769290131283
sg16
g17
sg18
F2.6962748010998516
sg19
F0.95267233188656153
sg20
(lp1275
g22
ag16
asg22
S'd65'
p1276
sbsba(icolor_base
Bucket
p1277
(dp1278
g5
F3245.0
sg6
(F193.35067390064268
F212.26226184127052
F216.95294071617201
tp1279
sg8
g9
(g10
g11
Ntp1280
Rp1281
(dp1282
g15
F83.669891275880431
sg16
g17
sg18
F-5.3729878868888363
sg19
F-4.6490992985822155
sg20
(lp1283
g22
ag16
asg22
S'd65'
p1284
sbsba(icolor_base
Bucket
p1285
(dp1286
g5
F402.0
sg6
(F247.21029867784162
F187.17685102364922
F176.7001278239733
tp1287
sg8
g9
(g10
g11
Ntp1288
Rp1289
(dp1290
g15
F81.011346789919685
sg16
g17
sg18
F20.237790073432905
sg19
F13.46828449356703
sg20
(lp1291
g22
ag16
asg22
S'd65'
p1292
sbsbatp1293
a(S'photos/Rogue_Red_Ale.png'
p1294
(lp1295
(icolor_base
Bucket
p1296
(dp1297
g5
F3694.0
sg6
(F36.181814649813141
F32.674170832368922
F26.627164933533606
tp1298
sg8
g9
(g10
g11
Ntp1299
Rp1300
(dp1301
g15
F12.872189676043316
sg16
g17
sg18
F0.10326495839822758
sg19
F4.5769894163677547
sg20
(lp1302
g22
ag16
asg22
S'd65'
p1303
sbsba(icolor_base
Bucket
p1304
(dp1305
g5
F1546.0
sg6
(F229.37723734124236
F224.43556113933846
F215.02714976099674
tp1306
sg8
g9
(g10
g11
Ntp1307
Rp1308
(dp1309
g15
F89.334831130983986
sg16
g17
sg18
F0.13833229388265922
sg19
F4.9929388240063322
sg20
(lp1310
g22
ag16
asg22
S'd65'
p1311
sbsba(icolor_base
Bucket
p1312
(dp1313
g5
F457.0
sg6
(F228.37083619011366
F113.74192609979967
F84.31329820784552
tp1314
sg8
g9
(g10
g11
Ntp1315
Rp1316
(dp1317
g15
F60.933313878723325
sg16
g17
sg18
F41.875002637894177
sg19
F36.936505836117625
sg20
(lp1318
g22
ag16
asg22
S'd65'
p1319
sbsba(icolor_base
Bucket
p1320
(dp1321
g5
F328.0
sg6
(F175.1423501595585
F167.67438686797755
F158.04883961896746
tp1322
sg8
g9
(g10
g11
Ntp1323
Rp1324
(dp1325
g15
F69.175150552405881
sg16
g17
sg18
F0.73048768207506498
sg19
F6.050846329713333
sg20
(lp1326
g22
ag16
asg22
S'd65'
p1327
sbsbatp1328
a(S'photos/Sam_Adams_Boston_Lager.png'
p1329
(lp1330
(icolor_base
Bucket
p1331
(dp1332
g5
F3669.0
sg6
(F40.112689362507822
F44.547982665615216
F149.82654041203762
tp1333
sg8
g9
(g10
g11
Ntp1334
Rp1335
(dp1336
g15
F25.349823801866975
sg16
g17
sg18
F34.472010173363685
sg19
F-57.88927985669784
sg20
(lp1337
g22
ag16
asg22
S'd65'
p1338
sbsba(icolor_base
Bucket
p1339
(dp1340
g5
F1386.0
sg6
(F216.85307815479402
F214.47882964848498
F211.14859067651011
tp1341
sg8
g9
(g10
g11
Ntp1342
Rp1343
(dp1344
g15
F85.779991908739689
sg16
g17
sg18
F0.48952149650188792
sg19
F1.8319734577165292
sg20
(lp1345
g22
ag16
asg22
S'd65'
p1346
sbsba(icolor_base
Bucket
p1347
(dp1348
g5
F457.0
sg6
(F212.29756478648008
F87.373506824648899
F80.139046340057547
tp1349
sg8
g9
(g10
g11
Ntp1350
Rp1351
(dp1352
g15
F53.379975839158291
sg16
g17
sg18
F48.815115404750642
sg19
F29.285444037527629
sg20
(lp1353
g22
ag16
asg22
S'd65'
p1354
sbsbatp1355
a(S'photos/Sam_Adams_Cherry_Wheat.png'
p1356
(lp1357
(icolor_base
Bucket
p1358
(dp1359
g5
F3673.0
sg6
(F38.683010529324214
F44.615760760779331
F148.97060917055953
tp1360
sg8
g9
(g10
g11
Ntp1361
Rp1362
(dp1363
g15
F25.191399272020561
sg16
g17
sg18
F33.999799406362804
sg19
F-57.536953399836932
sg20
(lp1364
g22
ag16
asg22
S'd65'
p1365
sbsba(icolor_base
Bucket
p1366
(dp1367
g5
F1565.0
sg6
(F214.73658313492408
F213.31267428400838
F211.33857259139577
tp1368
sg8
g9
(g10
g11
Ntp1369
Rp1370
(dp1371
g15
F85.371865957990209
sg16
g17
sg18
F0.32378615236616781
sg19
F1.2191602063502671
sg20
(lp1372
g22
ag16
asg22
S'd65'
p1373
sbsba(icolor_base
Bucket
p1374
(dp1375
g5
F465.0
sg6
(F210.33809977703262
F83.519984127303658
F77.799234809529423
tp1376
sg8
g9
(g10
g11
Ntp1377
Rp1378
(dp1379
g15
F52.503889796333112
sg16
g17
sg18
F49.359982664163695
sg19
F29.268905515072628
sg20
(lp1380
g22
ag16
asg22
S'd65'
p1381
sbsbatp1382
a(S'photos/Sam_Adams_Noble_Pils.png'
p1383
(lp1384
(icolor_base
Bucket
p1385
(dp1386
g5
F4788.0
sg6
(F145.50179955626595
F197.46414776561693
F64.98671658106926
tp1387
sg8
g9
(g10
g11
Ntp1388
Rp1389
(dp1390
g15
F73.820037701744226
sg16
g17
sg18
F-36.538564113351882
sg19
F58.35133380241826
sg20
(lp1391
g22
ag16
asg22
S'd65'
p1392
sbsba(icolor_base
Bucket
p1393
(dp1394
g5
F843.0
sg6
(F187.72779417579753
F203.05546134024138
F148.06381626712047
tp1395
sg8
g9
(g10
g11
Ntp1396
Rp1397
(dp1398
g15
F79.352007436087689
sg16
g17
sg18
F-14.384682803661342
sg19
F25.801183060704801
sg20
(lp1399
g22
ag16
asg22
S'd65'
p1400
sbsba(icolor_base
Bucket
p1401
(dp1402
g5
F816.0
sg6
(F193.46919871015362
F196.19355166247234
F185.51247816616623
tp1403
sg8
g9
(g10
g11
Ntp1404
Rp1405
(dp1406
g15
F78.67260153885708
sg16
g17
sg18
F-2.8534463260524445
sg19
F4.6462998986620985
sg20
(lp1407
g22
ag16
asg22
S'd65'
p1408
sbsba(icolor_base
Bucket
p1409
(dp1410
g5
F438.0
sg6
(F34.522264600235751
F61.954504324395693
F154.68576910737065
tp1411
sg8
g9
(g10
g11
Ntp1412
Rp1413
(dp1414
g15
F29.833784368377202
sg16
g17
sg18
F24.543755138043551
sg19
F-53.615091013329852
sg20
(lp1415
g22
ag16
asg22
S'd65'
p1416
sbsbatp1417
a(S'photos/Sam_Adams_Winter_Lager.png'
p1418
(lp1419
(icolor_base
Bucket
p1420
(dp1421
g5
F3666.0
sg6
(F53.743786365116954
F64.904906261821722
F183.82491807747388
tp1422
sg8
g9
(g10
g11
Ntp1423
Rp1424
(dp1425
g15
F34.034582884343031
sg16
g17
sg18
F35.594932007122601
sg19
F-64.08430735652766
sg20
(lp1426
g22
ag16
asg22
S'd65'
p1427
sbsba(icolor_base
Bucket
p1428
(dp1429
g5
F1446.0
sg6
(F218.65062422586632
F219.29201423488752
F214.37498510192523
tp1430
sg8
g9
(g10
g11
Ntp1431
Rp1432
(dp1433
g15
F87.279655984334696
sg16
g17
sg18
F-0.8912642591127895
sg19
F2.4454933155574787
sg20
(lp1434
g22
ag16
asg22
S'd65'
p1435
sbsba(icolor_base
Bucket
p1436
(dp1437
g5
F392.0
sg6
(F110.40619681949666
F115.51011280721814
F206.50667288843647
tp1438
sg8
g9
(g10
g11
Ntp1439
Rp1440
(dp1441
g15
F52.185924147378145
sg16
g17
sg18
F21.84367879721033
sg19
F-47.929167765423244
sg20
(lp1442
g22
ag16
asg22
S'd65'
p1443
sbsba(icolor_base
Bucket
p1444
(dp1445
g5
F345.0
sg6
(F57.003916066115636
F86.691207717274864
F71.773698328187649
tp1446
sg8
g9
(g10
g11
Ntp1447
Rp1448
(dp1449
g15
F34.301288716973602
sg16
g17
sg18
F-14.841985925006963
sg19
F5.202774511164443
sg20
(lp1450
g22
ag16
asg22
S'd65'
p1451
sbsba(icolor_base
Bucket
p1452
(dp1453
g5
F277.0
sg6
(F205.44795769013581
F212.03825199675998
F235.38105889990953
tp1454
sg8
g9
(g10
g11
Ntp1455
Rp1456
(dp1457
g15
F85.028908517666622
sg16
g17
sg18
F2.1192855567804814
sg19
F-12.099778874376522
sg20
(lp1458
g22
ag16
asg22
S'd65'
p1459
sbsbatp1460
a(S'photos/SanMiguel_PalePilsner.png'
p1461
(lp1462
(icolor_base
Bucket
p1463
(dp1464
g5
F4578.0
sg6
(F208.04834807557057
F189.56701155845926
F113.9732733440236
tp1465
sg8
g9
(g10
g11
Ntp1466
Rp1467
(dp1468
g15
F76.95250703169927
sg16
g17
sg18
F-3.9756556249142538
sg19
F40.550724414882609
sg20
(lp1469
g22
ag16
asg22
S'd65'
p1470
sbsba(icolor_base
Bucket
p1471
(dp1472
g5
F716.0
sg6
(F120.17744528821855
F108.19667403884151
F55.734954209518769
tp1473
sg8
g9
(g10
g11
Ntp1474
Rp1475
(dp1476
g15
F45.63978826609106
sg16
g17
sg18
F-2.7536953079837501
sg19
F30.554083347802198
sg20
(lp1477
g22
ag16
asg22
S'd65'
p1478
sbsba(icolor_base
Bucket
p1479
(dp1480
g5
F682.0
sg6
(F195.48532150377272
F63.82985228244128
F46.397153846231625
tp1481
sg8
g9
(g10
g11
Ntp1482
Rp1483
(dp1484
g15
F46.269916860902129
sg16
g17
sg18
F51.240826386458771
sg19
F39.450637645734489
sg20
(lp1485
g22
ag16
asg22
S'd65'
p1486
sbsba(icolor_base
Bucket
p1487
(dp1488
g5
F505.0
sg6
(F160.36861284875857
F147.51425595874036
F85.450719267097966
tp1489
sg8
g9
(g10
g11
Ntp1490
Rp1491
(dp1492
g15
F61.054129838693626
sg16
g17
sg18
F-4.5587333192944612
sg19
F34.766905633189403
sg20
(lp1493
g22
ag16
asg22
S'd65'
p1494
sbsba(icolor_base
Bucket
p1495
(dp1496
g5
F328.0
sg6
(F62.808491086284981
F55.7382680540424
F30.409577524480675
tp1497
sg8
g9
(g10
g11
Ntp1498
Rp1499
(dp1500
g15
F23.601694045121093
sg16
g17
sg18
F-1.264982883874527
sg19
F17.316542471342487
sg20
(lp1501
g22
ag16
asg22
S'd65'
p1502
sbsbatp1503
a(S'photos/Sea_Dog_Blue_Paw_Wild_Blueberry_Wheat_Ale.png'
p1504
(lp1505
(icolor_base
Bucket
p1506
(dp1507
g5
F3998.0
sg6
(F204.90862774582936
F190.29293842906009
F119.31536573166818
tp1508
sg8
g9
(g10
g11
Ntp1509
Rp1510
(dp1511
g15
F76.763099262415992
sg16
g17
sg18
F-4.6783076322776118
sg19
F37.711961938713088
sg20
(lp1512
g22
ag16
asg22
S'd65'
p1513
sbsba(icolor_base
Bucket
p1514
(dp1515
g5
F2095.0
sg6
(F46.032274290951349
F46.551702961204334
F92.951175488679965
tp1516
sg8
g9
(g10
g11
Ntp1517
Rp1518
(dp1519
g15
F21.594456554199489
sg16
g17
sg18
F13.575181093809618
sg19
F-27.748859885789901
sg20
(lp1520
g22
ag16
asg22
S'd65'
p1521
sbsba(icolor_base
Bucket
p1522
(dp1523
g5
F356.0
sg6
(F140.3947370334574
F128.59307916968791
F72.656732645225375
tp1524
sg8
g9
(g10
g11
Ntp1525
Rp1526
(dp1527
g15
F53.768706610892863
sg16
g17
sg18
F-3.9877553049683656
sg19
F31.722362067683985
sg20
(lp1528
g22
ag16
asg22
S'd65'
p1529
sbsba(icolor_base
Bucket
p1530
(dp1531
g5
F268.0
sg6
(F163.46995185322726
F158.76935474050339
F128.51920253523281
tp1532
sg8
g9
(g10
g11
Ntp1533
Rp1534
(dp1535
g15
F65.095752032912912
sg16
g17
sg18
F-3.6674752495081675
sg19
F16.211107789704492
sg20
(lp1536
g22
ag16
asg22
S'd65'
p1537
sbsba(icolor_base
Bucket
p1538
(dp1539
g5
F124.0
sg6
(F82.641809596282542
F80.125577609390504
F105.54151864103345
tp1540
sg8
g9
(g10
g11
Ntp1541
Rp1542
(dp1543
g15
F35.235913504775645
sg16
g17
sg18
F7.3639442594802258
sg19
F-14.545667563220588
sg20
(lp1544
g22
ag16
asg22
S'd65'
p1545
sbsba(icolor_base
Bucket
p1546
(dp1547
g5
F85.0
sg6
(F249.83617414212591
F247.46904182611271
F229.18875646997293
tp1548
sg8
g9
(g10
g11
Ntp1549
Rp1550
(dp1551
g15
F97.025534504421643
sg16
g17
sg18
F-2.0324911883509711
sg19
F8.9959534684318498
sg20
(lp1552
g22
ag16
asg22
S'd65'
p1553
sbsbatp1554
a(S'photos/Shiner_Bock.png'
p1555
(lp1556
(icolor_base
Bucket
p1557
(dp1558
g5
F3233.0
sg6
(F238.61053736923512
F164.38657635527954
F69.403780257867055
tp1559
sg8
g9
(g10
g11
Ntp1560
Rp1561
(dp1562
g15
F73.111605799249404
sg16
g17
sg18
F19.383744826221239
sg19
F58.422482704349513
sg20
(lp1563
g22
ag16
asg22
S'd65'
p1564
sbsba(icolor_base
Bucket
p1565
(dp1566
g5
F1320.0
sg6
(F247.75036478994332
F76.706730015554626
F59.954910089025908
tp1567
sg8
g9
(g10
g11
Ntp1568
Rp1569
(dp1570
g15
F57.650936724462937
sg16
g17
sg18
F63.928868022986642
sg19
F46.887054682966131
sg20
(lp1571
g22
ag16
asg22
S'd65'
p1572
sbsba(icolor_base
Bucket
p1573
(dp1574
g5
F894.0
sg6
(F104.17148833049237
F45.653715056479236
F25.597353865441175
tp1575
sg8
g9
(g10
g11
Ntp1576
Rp1577
(dp1578
g15
F26.655625761527574
sg16
g17
sg18
F24.443577557798829
sg19
F24.812776923640467
sg20
(lp1579
g22
ag16
asg22
S'd65'
p1580
sbsba(icolor_base
Bucket
p1581
(dp1582
g5
F749.0
sg6
(F164.18964242259372
F90.639170076487829
F39.994535885040214
tp1583
sg8
g9
(g10
g11
Ntp1584
Rp1585
(dp1586
g15
F46.351048380316996
sg16
g17
sg18
F25.810958301206778
sg19
F41.119085798756373
sg20
(lp1587
g22
ag16
asg22
S'd65'
p1588
sbsba(icolor_base
Bucket
p1589
(dp1590
g5
F475.0
sg6
(F225.89389092005791
F195.59234099887615
F115.24914787332149
tp1591
sg8
g9
(g10
g11
Ntp1592
Rp1593
(dp1594
g15
F80.116617242414335
sg16
g17
sg18
F0.32687001806253058
sg19
F44.330174892016494
sg20
(lp1595
g22
ag16
asg22
S'd65'
p1596
sbsba(icolor_base
Bucket
p1597
(dp1598
g5
F380.0
sg6
(F195.94333635039439
F128.09783643682084
F56.233108793247389
tp1599
sg8
g9
(g10
g11
Ntp1600
Rp1601
(dp1602
g15
F59.399319905458384
sg16
g17
sg18
F19.910333856056226
sg19
F48.385279025510798
sg20
(lp1603
g22
ag16
asg22
S'd65'
p1604
sbsba(icolor_base
Bucket
p1605
(dp1606
g5
F76.0
sg6
(F246.77651215547971
F126.86457536348763
F75.416332255109339
tp1607
sg8
g9
(g10
g11
Ntp1608
Rp1609
(dp1610
g15
F66.109193414126651
sg16
g17
sg18
F42.081018314968247
sg19
F48.376822201752979
sg20
(lp1611
g22
ag16
asg22
S'd65'
p1612
sbsbatp1613
a(S'photos/Shipyard_IPA.png'
p1614
(lp1615
(icolor_base
Bucket
p1616
(dp1617
g5
F1914.0
sg6
(F220.91684829812945
F64.98165049889981
F60.650225288018497
tp1618
sg8
g9
(g10
g11
Ntp1619
Rp1620
(dp1621
g15
F51.259565444289819
sg16
g17
sg18
F59.915256607285748
sg19
F37.94735975959447
sg20
(lp1622
g22
ag16
asg22
S'd65'
p1623
sbsba(icolor_base
Bucket
p1624
(dp1625
g5
F1484.0
sg6
(F213.20180476138995
F210.92678647753451
F206.42597241490503
tp1626
sg8
g9
(g10
g11
Ntp1627
Rp1628
(dp1629
g15
F84.58206148513149
sg16
g17
sg18
F-0.20689161944947854
sg19
F2.7043305823751806
sg20
(lp1630
g22
ag16
asg22
S'd65'
p1631
sbsba(icolor_base
Bucket
p1632
(dp1633
g5
F1196.0
sg6
(F52.910915684799534
F43.765932618799759
F107.07724648622285
tp1634
sg8
g9
(g10
g11
Ntp1635
Rp1636
(dp1637
g15
F22.371978339956776
sg16
g17
sg18
F22.227924288403226
sg19
F-35.604796545520443
sg20
(lp1638
g22
ag16
asg22
S'd65'
p1639
sbsba(icolor_base
Bucket
p1640
(dp1641
g5
F443.0
sg6
(F95.122742598720905
F87.498561728158151
F143.54697191906845
tp1642
sg8
g9
(g10
g11
Ntp1643
Rp1644
(dp1645
g15
F40.019517309272644
sg16
g17
sg18
F17.208512492347673
sg19
F-30.392310012610025
sg20
(lp1646
g22
ag16
asg22
S'd65'
p1647
sbsbatp1648
a(S'photos/Shriner_Black_Lager.png'
p1649
(lp1650
(icolor_base
Bucket
p1651
(dp1652
g5
F5482.0
sg6
(F29.540859287903331
F28.476233444480968
F24.500064874842149
tp1653
sg8
g9
(g10
g11
Ntp1654
Rp1655
(dp1656
g15
F10.384541211894096
sg16
g17
sg18
F0.25947450788993409
sg19
F2.4200212071097962
sg20
(lp1657
g22
ag16
asg22
S'd65'
p1658
sbsba(icolor_base
Bucket
p1659
(dp1660
g5
F817.0
sg6
(F238.80341755675613
F237.85060567186741
F227.96976460530391
tp1661
sg8
g9
(g10
g11
Ntp1662
Rp1663
(dp1664
g15
F93.926773745284436
sg16
g17
sg18
F-1.3984400855749923
sg19
F4.9439131418196336
sg20
(lp1665
g22
ag16
asg22
S'd65'
p1666
sbsbatp1667
a(S'photos/Shriner_Hefeweizen.png'
p1668
(lp1669
(icolor_base
Bucket
p1670
(dp1671
g5
F4186.0
sg6
(F215.9636097795163
F105.59184002588886
F50.28279202897626
tp1672
sg8
g9
(g10
g11
Ntp1673
Rp1674
(dp1675
g15
F57.212041910774971
sg16
g17
sg18
F39.54047499682023
sg19
F49.796136424595858
sg20
(lp1676
g22
ag16
asg22
S'd65'
p1677
sbsba(icolor_base
Bucket
p1678
(dp1679
g5
F1293.0
sg6
(F214.9042683946964
F184.39587246903955
F83.526323193449201
tp1680
sg8
g9
(g10
g11
Ntp1681
Rp1682
(dp1683
g15
F75.680817163735554
sg16
g17
sg18
F-0.44730707833445793
sg19
F53.746955663135118
sg20
(lp1684
g22
ag16
asg22
S'd65'
p1685
sbsba(icolor_base
Bucket
p1686
(dp1687
g5
F770.0
sg6
(F222.96728795650895
F152.73963899107918
F67.599588777501708
tp1688
sg8
g9
(g10
g11
Ntp1689
Rp1690
(dp1691
g15
F68.671877864129655
sg16
g17
sg18
F18.475549088578347
sg19
F53.642198404620444
sg20
(lp1692
g22
ag16
asg22
S'd65'
p1693
sbsba(icolor_base
Bucket
p1694
(dp1695
g5
F502.0
sg6
(F158.79149945001484
F74.442033692997995
F35.118640545636673
tp1696
sg8
g9
(g10
g11
Ntp1697
Rp1698
(dp1699
g15
F41.83164576975588
sg16
g17
sg18
F32.719268877538454
sg19
F38.745135997814408
sg20
(lp1700
g22
ag16
asg22
S'd65'
p1701
sbsba(icolor_base
Bucket
p1702
(dp1703
g5
F149.0
sg6
(F168.14876898627301
F116.02381258402968
F50.444302911839344
tp1704
sg8
g9
(g10
g11
Ntp1705
Rp1706
(dp1707
g15
F53.001240054503228
sg16
g17
sg18
F14.023212349270231
sg19
F43.412974988461393
sg20
(lp1708
g22
ag16
asg22
S'd65'
p1709
sbsba(icolor_base
Bucket
p1710
(dp1711
g5
F97.0
sg6
(F140.81167943160216
F128.77428187343341
F54.275009161794472
tp1712
sg8
g9
(g10
g11
Ntp1713
Rp1714
(dp1715
g15
F53.63230631314174
sg16
g17
sg18
F-5.2400122860358227
sg19
F41.342352950907213
sg20
(lp1716
g22
ag16
asg22
S'd65'
p1717
sbsbatp1718
a(S'photos/Sierra_Nevada_Glissade.png'
p1719
(lp1720
(icolor_base
Bucket
p1721
(dp1722
g5
F4735.0
sg6
(F199.88130283337836
F181.47026681872384
F107.44324227002154
tp1723
sg8
g9
(g10
g11
Ntp1724
Rp1725
(dp1726
g15
F73.797709374926626
sg16
g17
sg18
F-3.2310942733957959
sg19
F40.011585205332146
sg20
(lp1727
g22
ag16
asg22
S'd65'
p1728
sbsba(icolor_base
Bucket
p1729
(dp1730
g5
F792.0
sg6
(F152.08877127906246
F139.44775964804521
F82.101305809925705
tp1731
sg8
g9
(g10
g11
Ntp1732
Rp1733
(dp1734
g15
F57.799356107687842
sg16
g17
sg18
F-3.3739692630794238
sg19
F32.146290321501723
sg20
(lp1735
g22
ag16
asg22
S'd65'
p1736
sbsba(icolor_base
Bucket
p1737
(dp1738
g5
F586.0
sg6
(F103.51200636106071
F93.688914954255409
F53.247418316902269
tp1739
sg8
g9
(g10
g11
Ntp1740
Rp1741
(dp1742
g15
F39.924882208271313
sg16
g17
sg18
F-2.2582722113400622
sg19
F24.871756913200461
sg20
(lp1743
g22
ag16
asg22
S'd65'
p1744
sbsba(icolor_base
Bucket
p1745
(dp1746
g5
F325.0
sg6
(F74.718643631044856
F53.0999294827594
F27.818885576055305
tp1747
sg8
g9
(g10
g11
Ntp1748
Rp1749
(dp1750
g15
F24.084113798801027
sg16
g17
sg18
F6.5431299844331274
sg19
F19.478177723735129
sg20
(lp1751
g22
ag16
asg22
S'd65'
p1752
sbsba(icolor_base
Bucket
p1753
(dp1754
g5
F324.0
sg6
(F43.750372817698157
F39.686150587961912
F26.822514357283143
tp1755
sg8
g9
(g10
g11
Ntp1756
Rp1757
(dp1758
g15
F16.166387100075319
sg16
g17
sg18
F-0.71774696629392509
sg19
F9.2458771817714727
sg20
(lp1759
g22
ag16
asg22
S'd65'
p1760
sbsba(icolor_base
Bucket
p1761
(dp1762
g5
F218.0
sg6
(F244.16473324609265
F232.35626646976968
F171.36227794668582
tp1763
sg8
g9
(g10
g11
Ntp1764
Rp1765
(dp1766
g15
F91.634443894236469
sg16
g17
sg18
F-4.9744144182403698
sg19
F31.201179757492369
sg20
(lp1767
g22
ag16
asg22
S'd65'
p1768
sbsba(icolor_base
Bucket
p1769
(dp1770
g5
F86.0
sg6
(F251.9538752823627
F252.4920750967766
F244.24000599874401
tp1771
sg8
g9
(g10
g11
Ntp1772
Rp1773
(dp1774
g15
F98.768179657778589
sg16
g17
sg18
F-1.3825482582389137
sg19
F3.81561100659491
sg20
(lp1775
g22
ag16
asg22
S'd65'
p1776
sbsbatp1777
a(S'photos/Sierra_Nevada_Kellerweis.png'
p1778
(lp1779
(icolor_base
Bucket
p1780
(dp1781
g5
F5321.0
sg6
(F235.74985439643262
F179.86028055952926
F70.262569144225054
tp1782
sg8
g9
(g10
g11
Ntp1783
Rp1784
(dp1785
g15
F76.630688971108128
sg16
g17
sg18
F9.7201020960782643
sg19
F61.522741998209916
sg20
(lp1786
g22
ag16
asg22
S'd65'
p1787
sbsba(icolor_base
Bucket
p1788
(dp1789
g5
F1046.0
sg6
(F181.76034589518494
F75.416064983047008
F39.709764226971323
tp1790
sg8
g9
(g10
g11
Ntp1791
Rp1792
(dp1793
g15
F45.815460078422156
sg16
g17
sg18
F41.436774560441982
sg19
F41.451214799426737
sg20
(lp1794
g22
ag16
asg22
S'd65'
p1795
sbsba(icolor_base
Bucket
p1796
(dp1797
g5
F576.0
sg6
(F209.25118871381443
F133.74126388214847
F60.10777513442229
tp1798
sg8
g9
(g10
g11
Ntp1799
Rp1800
(dp1801
g15
F62.452092519726392
sg16
g17
sg18
F22.384717265573173
sg19
F50.22704322614554
sg20
(lp1802
g22
ag16
asg22
S'd65'
p1803
sbsba(icolor_base
Bucket
p1804
(dp1805
g5
F103.0
sg6
(F165.81159561838592
F118.8018081054805
F44.060187179918309
tp1806
sg8
g9
(g10
g11
Ntp1807
Rp1808
(dp1809
g15
F53.474985467987878
sg16
g17
sg18
F11.109881925430054
sg19
F46.62299533233071
sg20
(lp1810
g22
ag16
asg22
S'd65'
p1811
sbsba(icolor_base
Bucket
p1812
(dp1813
g5
F59.0
sg6
(F248.7774972379091
F226.78582059641229
F174.75678828938061
tp1814
sg8
g9
(g10
g11
Ntp1815
Rp1816
(dp1817
g15
F90.859478929425521
sg16
g17
sg18
F-0.061053570096558651
sg19
F28.178934747423124
sg20
(lp1818
g22
ag16
asg22
S'd65'
p1819
sbsbatp1820
a(S'photos/Sierra_Nevada_Pale_Ale.png'
p1821
(lp1822
(icolor_base
Bucket
p1823
(dp1824
g5
F4308.0
sg6
(F13.095604413483493
F205.91007381905854
F77.327449480083217
tp1825
sg8
g9
(g10
g11
Ntp1826
Rp1827
(dp1828
g15
F72.734457378797487
sg16
g17
sg18
F-68.321913749561759
sg19
F51.050279724440806
sg20
(lp1829
g22
ag16
asg22
S'd65'
p1830
sbsba(icolor_base
Bucket
p1831
(dp1832
g5
F1107.0
sg6
(F221.1088865373967
F240.30795198790861
F222.30595026798088
tp1833
sg8
g9
(g10
g11
Ntp1834
Rp1835
(dp1836
g15
F92.999371933980413
sg16
g17
sg18
F-9.5163649692719954
sg19
F6.5538619760516115
sg20
(lp1837
g22
ag16
asg22
S'd65'
p1838
sbsba(icolor_base
Bucket
p1839
(dp1840
g5
F426.0
sg6
(F31.734265613331626
F154.08025385038624
F75.974025032918192
tp1841
sg8
g9
(g10
g11
Ntp1842
Rp1843
(dp1844
g15
F56.026367870600197
sg16
g17
sg18
F-49.872921378674221
sg19
F31.750348778810821
sg20
(lp1845
g22
ag16
asg22
S'd65'
p1846
sbsba(icolor_base
Bucket
p1847
(dp1848
g5
F416.0
sg6
(F161.34099511222681
F212.65232488219527
F147.56911331049054
tp1849
sg8
g9
(g10
g11
Ntp1850
Rp1851
(dp1852
g15
F80.34941396054117
sg16
g17
sg18
F-28.991133604605757
sg19
F26.848992488370605
sg20
(lp1853
g22
ag16
asg22
S'd65'
p1854
sbsba(icolor_base
Bucket
p1855
(dp1856
g5
F302.0
sg6
(F67.867917229109324
F198.58881495465388
F147.683014358891
tp1857
sg8
g9
(g10
g11
Ntp1858
Rp1859
(dp1860
g15
F72.369576078034285
sg16
g17
sg18
F-47.615726421616877
sg19
F15.272187778767176
sg20
(lp1861
g22
ag16
asg22
S'd65'
p1862
sbsba(icolor_base
Bucket
p1863
(dp1864
g5
F244.0
sg6
(F6.8046524096573391
F107.25346627114507
F47.561435025174141
tp1865
sg8
g9
(g10
g11
Ntp1866
Rp1867
(dp1868
g15
F39.196018369076448
sg16
g17
sg18
F-40.181804140649227
sg19
F25.68205172038488
sg20
(lp1869
g22
ag16
asg22
S'd65'
p1870
sbsba(icolor_base
Bucket
p1871
(dp1872
g5
F194.0
sg6
(F135.42347303502379
F214.58574351461016
F201.15400087713698
tp1873
sg8
g9
(g10
g11
Ntp1874
Rp1875
(dp1876
g15
F80.720151963210228
sg16
g17
sg18
F-27.685532146156767
sg19
F-0.84628017277297296
sg20
(lp1877
g22
ag16
asg22
S'd65'
p1878
sbsbatp1879
a(S'photos/Sierra_Nevada_Porter.png'
p1880
(lp1881
(icolor_base
Bucket
p1882
(dp1883
g5
F4646.0
sg6
(F155.62880742071587
F104.88079815552373
F59.655979331459783
tp1884
sg8
g9
(g10
g11
Ntp1885
Rp1886
(dp1887
g15
F48.882127001848204
sg16
g17
sg18
F15.623358752498929
sg19
F33.217664139442483
sg20
(lp1888
g22
ag16
asg22
S'd65'
p1889
sbsba(icolor_base
Bucket
p1890
(dp1891
g5
F1525.0
sg6
(F231.52813797751713
F196.01952909466436
F119.2741115392119
tp1892
sg8
g9
(g10
g11
Ntp1893
Rp1894
(dp1895
g15
F80.721833192154619
sg16
g17
sg18
F3.1298108072680964
sg19
F43.204458956994472
sg20
(lp1896
g22
ag16
asg22
S'd65'
p1897
sbsba(icolor_base
Bucket
p1898
(dp1899
g5
F775.0
sg6
(F194.01678526903819
F146.09980923565641
F83.972214705444145
tp1900
sg8
g9
(g10
g11
Ntp1901
Rp1902
(dp1903
g15
F63.891899555602023
sg16
g17
sg18
F11.018009615074153
sg19
F39.527668526597061
sg20
(lp1904
g22
ag16
asg22
S'd65'
p1905
sbsba(icolor_base
Bucket
p1906
(dp1907
g5
F211.0
sg6
(F111.82843094822725
F76.256811348310904
F41.115427181294201
tp1908
sg8
g9
(g10
g11
Ntp1909
Rp1910
(dp1911
g15
F35.546050351218355
sg16
g17
sg18
F11.211146004527134
sg19
F26.62854001368018
sg20
(lp1912
g22
ag16
asg22
S'd65'
p1913
sbsbatp1914
a(S'photos/Sierra_Nevada_Stout.png'
p1915
(lp1916
(icolor_base
Bucket
p1917
(dp1918
g5
F4850.0
sg6
(F245.75799308949897
F102.05308421378368
F79.156824299589303
tp1919
sg8
g9
(g10
g11
Ntp1920
Rp1921
(dp1922
g15
F61.363724755597332
sg16
g17
sg18
F53.823737884461096
sg19
F40.815260030238164
sg20
(lp1923
g22
ag16
asg22
S'd65'
p1924
sbsba(icolor_base
Bucket
p1925
(dp1926
g5
F676.0
sg6
(F250.99518514693648
F237.77396923908972
F225.2631571730501
tp1927
sg8
g9
(g10
g11
Ntp1928
Rp1929
(dp1930
g15
F94.778678614959674
sg16
g17
sg18
F2.2298567221578636
sg19
F7.8458663769364501
sg20
(lp1931
g22
ag16
asg22
S'd65'
p1932
sbsba(icolor_base
Bucket
p1933
(dp1934
g5
F463.0
sg6
(F250.05009244089297
F206.34904299485305
F205.82134244901505
tp1935
sg8
g9
(g10
g11
Ntp1936
Rp1937
(dp1938
g15
F86.466752686016065
sg16
g17
sg18
F15.462395641941518
sg19
F5.8243572829824064
sg20
(lp1939
g22
ag16
asg22
S'd65'
p1940
sbsba(icolor_base
Bucket
p1941
(dp1942
g5
F322.0
sg6
(F240.80308994738297
F156.95112677203602
F124.83929258124671
tp1943
sg8
g9
(g10
g11
Ntp1944
Rp1945
(dp1946
g15
F72.427628772556929
sg16
g17
sg18
F27.876780854411422
sg19
F29.64988385256342
sg20
(lp1947
g22
ag16
asg22
S'd65'
p1948
sbsba(icolor_base
Bucket
p1949
(dp1950
g5
F303.0
sg6
(F250.21506501658632
F207.17955878953484
F171.83012441620136
tp1951
sg8
g9
(g10
g11
Ntp1952
Rp1953
(dp1954
g15
F85.971602854016467
sg16
g17
sg18
F10.237194355055767
sg19
F23.076629268472271
sg20
(lp1955
g22
ag16
asg22
S'd65'
p1956
sbsba(icolor_base
Bucket
p1957
(dp1958
g5
F272.0
sg6
(F246.35880414773146
F146.99980797292767
F154.88722390748026
tp1959
sg8
g9
(g10
g11
Ntp1960
Rp1961
(dp1962
g15
F71.439632216356912
sg16
g17
sg18
F38.130305046111921
sg19
F11.935000530650575
sg20
(lp1963
g22
ag16
asg22
S'd65'
p1964
sbsba(icolor_base
Bucket
p1965
(dp1966
g5
F251.0
sg6
(F209.29817375204681
F58.912323362448227
F43.18631316731777
tp1967
sg8
g9
(g10
g11
Ntp1968
Rp1969
(dp1970
g15
F48.084427570678173
sg16
g17
sg18
F57.634345879726659
sg19
F43.728735005044463
sg20
(lp1971
g22
ag16
asg22
S'd65'
p1972
sbsbatp1973
a(S'photos/Sierra_Nevada_Torpedo.png'
p1974
(lp1975
(icolor_base
Bucket
p1976
(dp1977
g5
F4403.0
sg6
(F58.379178008861381
F83.457869977666633
F69.253460522257996
tp1978
sg8
g9
(g10
g11
Ntp1979
Rp1980
(dp1981
g15
F32.952798836869121
sg16
g17
sg18
F-12.894746449557349
sg19
F5.1721330726771875
sg20
(lp1982
g22
ag16
asg22
S'd65'
p1983
sbsba(icolor_base
Bucket
p1984
(dp1985
g5
F1103.0
sg6
(F232.82391999935308
F235.05256761642346
F225.53328977791659
tp1986
sg8
g9
(g10
g11
Ntp1987
Rp1988
(dp1989
g15
F92.676834593283175
sg16
g17
sg18
F-2.2499392802047824
sg19
F4.1181913566926021
sg20
(lp1990
g22
ag16
asg22
S'd65'
p1991
sbsba(icolor_base
Bucket
p1992
(dp1993
g5
F378.0
sg6
(F102.28878752101888
F108.24377061849013
F85.854947543491704
tp1994
sg8
g9
(g10
g11
Ntp1995
Rp1996
(dp1997
g15
F44.549311959315489
sg16
g17
sg18
F-6.5738901430241192
sg19
F11.561555792863798
sg20
(lp1998
g22
ag16
asg22
S'd65'
p1999
sbsba(icolor_base
Bucket
p2000
(dp2001
g5
F321.0
sg6
(F201.11634741727684
F198.50078456837858
F167.91754475996785
tp2002
sg8
g9
(g10
g11
Ntp2003
Rp2004
(dp2005
g15
F79.666045939933838
sg16
g17
sg18
F-4.5254219850750506
sg19
F15.797176921082201
sg20
(lp2006
g22
ag16
asg22
S'd65'
p2007
sbsba(icolor_base
Bucket
p2008
(dp2009
g5
F243.0
sg6
(F76.146591742168425
F89.755125841333424
F95.140366052936201
tp2010
sg8
g9
(g10
g11
Ntp2011
Rp2012
(dp2013
g15
F37.252449042419293
sg16
g17
sg18
F-4.185371565313317
sg19
F-4.6961880327608396
sg20
(lp2014
g22
ag16
asg22
S'd65'
p2015
sbsbatp2016
a(S'photos/Spaten.png'
p2017
(lp2018
(icolor_base
Bucket
p2019
(dp2020
g5
F9199.0
sg6
(F252.33745866824643
F245.97837367090517
F248.25981746012408
tp2021
sg8
g9
(g10
g11
Ntp2022
Rp2023
(dp2024
g15
F97.383437943665399
sg16
g17
sg18
F2.34129601639671
sg19
F-0.25822638697701183
sg20
(lp2025
g22
ag16
asg22
S'd65'
p2026
sbsba(icolor_base
Bucket
p2027
(dp2028
g5
F1165.0
sg6
(F241.73698833113093
F4.7974185846056683
F5.2608111908579582
tp2029
sg8
g9
(g10
g11
Ntp2030
Rp2031
(dp2032
g15
F50.689204179605696
sg16
g17
sg18
F76.645462204333938
sg19
F63.29876304886227
sg20
(lp2033
g22
ag16
asg22
S'd65'
p2034
sbsba(icolor_base
Bucket
p2035
(dp2036
g5
F880.0
sg6
(F18.912981181130458
F9.1429497165901505
F12.467631580186948
tp2037
sg8
g9
(g10
g11
Ntp2038
Rp2039
(dp2040
g15
g113
(g117
S'h\r\xa9\xac\xeb\n\n@'
p2041
tp2042
Rp2043
sg16
g17
sg18
g113
(g117
S'\xe8\xbd\x1d\x00+\x84\r@'
p2044
tp2045
Rp2046
sg19
g113
(g117
S'\x80\xac\xbf6\xf6\xf8\x9f\xbf'
p2047
tp2048
Rp2049
sg20
(lp2050
g22
ag16
asg22
S'd65'
p2051
sbsba(icolor_base
Bucket
p2052
(dp2053
g5
F699.0
sg6
(F229.51608095782657
F191.77507078461153
F192.69643285420892
tp2054
sg8
g9
(g10
g11
Ntp2055
Rp2056
(dp2057
g15
F80.946263191287244
sg16
g17
sg18
F13.668622397446594
sg19
F4.5604669895306982
sg20
(lp2058
g22
ag16
asg22
S'd65'
p2059
sbsba(icolor_base
Bucket
p2060
(dp2061
g5
F652.0
sg6
(F168.24977546802157
F139.01562473854256
F141.70383130403374
tp2062
sg8
g9
(g10
g11
Ntp2063
Rp2064
(dp2065
g15
F60.554834766706861
sg16
g17
sg18
F11.446553514437241
sg19
F2.5124685468696617
sg20
(lp2066
g22
ag16
asg22
S'd65'
p2067
sbsba(icolor_base
Bucket
p2068
(dp2069
g5
F438.0
sg6
(F69.899396925994608
F47.82582821627922
F53.127552347967324
tp2070
sg8
g9
(g10
g11
Ntp2071
Rp2072
(dp2073
g15
F22.560238433430939
sg16
g17
sg18
F10.915658641763775
sg19
F0.81386094873633352
sg20
(lp2074
g22
ag16
asg22
S'd65'
p2075
sbsba(icolor_base
Bucket
p2076
(dp2077
g5
F356.0
sg6
(F131.55538268964736
F101.80288170366843
F105.4105009644953
tp2078
sg8
g9
(g10
g11
Ntp2079
Rp2080
(dp2081
g15
F46.215895732994554
sg16
g17
sg18
F12.524607790641241
sg19
F2.9387035818676521
sg20
(lp2082
g22
ag16
asg22
S'd65'
p2083
sbsba(icolor_base
Bucket
p2084
(dp2085
g5
F318.0
sg6
(F185.15431524483049
F179.86729026820558
F180.81838154409124
tp2086
sg8
g9
(g10
g11
Ntp2087
Rp2088
(dp2089
g15
F73.73534124543481
sg16
g17
sg18
F1.9465108325488756
sg19
F0.11212733214591708
sg20
(lp2090
g22
ag16
asg22
S'd65'
p2091
sbsbatp2092
a(S'photos/Speakeasy_Prohibition.png'
p2093
(lp2094
(icolor_base
Bucket
p2095
(dp2096
g5
F3359.0
sg6
(F212.81013539053652
F208.32187602600573
F196.20249447523375
tp2097
sg8
g9
(g10
g11
Ntp2098
Rp2099
(dp2100
g15
F83.570430952448419
sg16
g17
sg18
F-0.36370216969466851
sg19
F6.5557338213876104
sg20
(lp2101
g22
ag16
asg22
S'd65'
p2102
sbsba(icolor_base
Bucket
p2103
(dp2104
g5
F1491.0
sg6
(F47.488049339768494
F45.716390696483408
F35.452756612569992
tp2105
sg8
g9
(g10
g11
Ntp2106
Rp2107
(dp2108
g15
F18.712553853551888
sg16
g17
sg18
F-1.8711097373553254
sg19
F7.273071994516533
sg20
(lp2109
g22
ag16
asg22
S'd65'
p2110
sbsba(icolor_base
Bucket
p2111
(dp2112
g5
F454.0
sg6
(F198.06636518391485
F170.0124581260736
F115.02823164555303
tp2113
sg8
g9
(g10
g11
Ntp2114
Rp2115
(dp2116
g15
F70.866954732162213
sg16
g17
sg18
F2.6193781725820098
sg19
F32.096467339279002
sg20
(lp2117
g22
ag16
asg22
S'd65'
p2118
sbsba(icolor_base
Bucket
p2119
(dp2120
g5
F355.0
sg6
(F153.05244773696688
F123.25403611978714
F75.356807558375266
tp2121
sg8
g9
(g10
g11
Ntp2122
Rp2123
(dp2124
g15
F53.435355666786549
sg16
g17
sg18
F5.3135925681701002
sg19
F30.502941314822696
sg20
(lp2125
g22
ag16
asg22
S'd65'
p2126
sbsba(icolor_base
Bucket
p2127
(dp2128
g5
F310.0
sg6
(F168.43095289025842
F66.415192196520124
F51.761039871575449
tp2129
sg8
g9
(g10
g11
Ntp2130
Rp2131
(dp2132
g15
F41.955279532147507
sg16
g17
sg18
F41.088583569334922
sg19
F29.913809993349783
sg20
(lp2133
g22
ag16
asg22
S'd65'
p2134
sbsba(icolor_base
Bucket
p2135
(dp2136
g5
F307.0
sg6
(F110.05577203236953
F86.608331414390364
F52.327629107293198
tp2137
sg8
g9
(g10
g11
Ntp2138
Rp2139
(dp2140
g15
F38.515524669733537
sg16
g17
sg18
F4.615610707349588
sg19
F23.828281688084285
sg20
(lp2141
g22
ag16
asg22
S'd65'
p2142
sbsbatp2143
a(S'photos/Steelhead_Extra_Pale_Ale.png'
p2144
(lp2145
(icolor_base
Bucket
p2146
(dp2147
g5
F3745.0
sg6
(F195.68515035241174
F176.60060990095053
F149.32927116406134
tp2148
sg8
g9
(g10
g11
Ntp2149
Rp2150
(dp2151
g15
F73.122271689700796
sg16
g17
sg18
F2.3815474082342081
sg19
F16.82173555284232
sg20
(lp2152
g22
ag16
asg22
S'd65'
p2153
sbsba(icolor_base
Bucket
p2154
(dp2155
g5
F1551.0
sg6
(F149.60480810809216
F132.98888553947788
F110.29323982622192
tp2156
sg8
g9
(g10
g11
Ntp2157
Rp2158
(dp2159
g15
F56.47159235127809
sg16
g17
sg18
F2.6804854770450803
sg19
F14.769518920655923
sg20
(lp2160
g22
ag16
asg22
S'd65'
p2161
sbsba(icolor_base
Bucket
p2162
(dp2163
g5
F1069.0
sg6
(F110.65458875070671
F91.548186677166626
F71.437147633459887
tp2164
sg8
g9
(g10
g11
Ntp2165
Rp2166
(dp2167
g15
F40.392294425533549
sg16
g17
sg18
F4.3721466244658611
sg19
F14.983425335813694
sg20
(lp2168
g22
ag16
asg22
S'd65'
p2169
sbsba(icolor_base
Bucket
p2170
(dp2171
g5
F411.0
sg6
(F62.438521917565069
F56.59125528237076
F45.541411775751193
tp2172
sg8
g9
(g10
g11
Ntp2173
Rp2174
(dp2175
g15
F24.153852184344181
sg16
g17
sg18
F0.0078928754865814632
sg19
F7.6556368705387516
sg20
(lp2176
g22
ag16
asg22
S'd65'
p2177
sbsba(icolor_base
Bucket
p2178
(dp2179
g5
F202.0
sg6
(F235.15412767095239
F233.88704882679869
F225.29294823923007
tp2180
sg8
g9
(g10
g11
Ntp2181
Rp2182
(dp2183
g15
F92.550207583815649
sg16
g17
sg18
F-1.2318226680856359
sg19
F4.4741770382394019
sg20
(lp2184
g22
ag16
asg22
S'd65'
p2185
sbsbatp2186
a(S'photos/StellaArtois.png'
p2187
(lp2188
(icolor_base
Bucket
p2189
(dp2190
g5
F6532.0
sg6
(F240.66202488744639
F234.9411903954969
F230.71371258572401
tp2191
sg8
g9
(g10
g11
Ntp2192
Rp2193
(dp2194
g15
F93.401504290574067
sg16
g17
sg18
F1.3229463312179335
sg19
F2.6429982824101472
sg20
(lp2195
g22
ag16
asg22
S'd65'
p2196
sbsba(icolor_base
Bucket
p2197
(dp2198
g5
F4550.0
sg6
(F185.04146270250354
F135.74056434881018
F83.024725974642848
tp2199
sg8
g9
(g10
g11
Ntp2200
Rp2201
(dp2202
g15
F60.381249565132038
sg16
g17
sg18
F12.609569422136868
sg19
F35.553145853875925
sg20
(lp2203
g22
ag16
asg22
S'd65'
p2204
sbsba(icolor_base
Bucket
p2205
(dp2206
g5
F2772.0
sg6
(F219.67558726471839
F187.9021984860982
F158.23741179905434
tp2207
sg8
g9
(g10
g11
Ntp2208
Rp2209
(dp2210
g15
F78.258441540426105
sg16
g17
sg18
F6.9825817602792721
sg19
F19.424594970703325
sg20
(lp2211
g22
ag16
asg22
S'd65'
p2212
sbsba(icolor_base
Bucket
p2213
(dp2214
g5
F282.0
sg6
(F252.41799730729505
F231.26998493007653
F176.7262598070003
tp2215
sg8
g9
(g10
g11
Ntp2216
Rp2217
(dp2218
g15
F92.141952263612325
sg16
g17
sg18
F-0.7159478136142261
sg19
F28.933795049504262
sg20
(lp2219
g22
ag16
asg22
S'd65'
p2220
sbsba(icolor_base
Bucket
p2221
(dp2222
g5
F212.0
sg6
(F131.51602380202115
F96.09377192094874
F54.245557481247758
tp2223
sg8
g9
(g10
g11
Ntp2224
Rp2225
(dp2226
g15
F43.563480057107647
sg16
g17
sg18
F9.5919844417250424
sg19
F29.458579523723582
sg20
(lp2227
g22
ag16
asg22
S'd65'
p2228
sbsba(icolor_base
Bucket
p2229
(dp2230
g5
F57.0
sg6
(F178.14478296499377
F174.14763185782999
F161.58307483063243
tp2231
sg8
g9
(g10
g11
Ntp2232
Rp2233
(dp2234
g15
F71.108757036753218
sg16
g17
sg18
F-0.72251133790351973
sg19
F6.6548982999522055
sg20
(lp2235
g22
ag16
asg22
S'd65'
p2236
sbsbatp2237
a(S'photos/Stone_Pale_Ale_varietyCaps,2.png'
p2238
(lp2239
(icolor_base
Bucket
p2240
(dp2241
g5
F4801.0
sg6
(F227.32522201082384
F199.76923312029538
F94.630036888588705
tp2242
sg8
g9
(g10
g11
Ntp2243
Rp2244
(dp2245
g15
F80.997945538359943
sg16
g17
sg18
F-2.9623560861148923
sg19
F54.995831984198148
sg20
(lp2246
g22
ag16
asg22
S'd65'
p2247
sbsba(icolor_base
Bucket
p2248
(dp2249
g5
F682.0
sg6
(F172.22344399790038
F149.48794730407494
F67.474912558497792
tp2250
sg8
g9
(g10
g11
Ntp2251
Rp2252
(dp2253
g15
F62.229562657040404
sg16
g17
sg18
F-1.4661125868177249
sg19
F45.510221619548986
sg20
(lp2254
g22
ag16
asg22
S'd65'
p2255
sbsba(icolor_base
Bucket
p2256
(dp2257
g5
F678.0
sg6
(F52.083985528599754
F48.277906922751235
F25.231676888476834
tp2258
sg8
g9
(g10
g11
Ntp2259
Rp2260
(dp2261
g15
F19.696992345052152
sg16
g17
sg18
F-2.2794958706232604
sg19
F15.340839951693825
sg20
(lp2262
g22
ag16
asg22
S'd65'
p2263
sbsba(icolor_base
Bucket
p2264
(dp2265
g5
F458.0
sg6
(F86.577560755057959
F64.654824254818536
F28.003687509294338
tp2266
sg8
g9
(g10
g11
Ntp2267
Rp2268
(dp2269
g15
F29.135696831266017
sg16
g17
sg18
F4.8719466272657002
sg19
F25.781562463327855
sg20
(lp2270
g22
ag16
asg22
S'd65'
p2271
sbsba(icolor_base
Bucket
p2272
(dp2273
g5
F418.0
sg6
(F133.51972669852844
F105.83770322604255
F45.637135408686547
tp2274
sg8
g9
(g10
g11
Ntp2275
Rp2276
(dp2277
g15
F46.411019827094592
sg16
g17
sg18
F4.0336557405865614
sg19
F37.073798467689301
sg20
(lp2278
g22
ag16
asg22
S'd65'
p2279
sbsba(icolor_base
Bucket
p2280
(dp2281
g5
F57.0
sg6
(F253.30223798134884
F247.10074504529143
F204.24547391084727
tp2282
sg8
g9
(g10
g11
Ntp2283
Rp2284
(dp2285
g15
F96.723970071352966
sg16
g17
sg18
F-4.7883990711553022
sg19
F21.429501143875452
sg20
(lp2286
g22
ag16
asg22
S'd65'
p2287
sbsbatp2288
a(S'photos/Stone_Pale_Ale_varietyCaps,3.png'
p2289
(lp2290
(icolor_base
Bucket
p2291
(dp2292
g5
F5343.0
sg6
(F220.63662848938577
F197.30791128096195
F98.45704509101742
tp2293
sg8
g9
(g10
g11
Ntp2294
Rp2295
(dp2296
g15
F79.720711103381532
sg16
g17
sg18
F-3.6772844093448942
sg19
F51.991414727002464
sg20
(lp2297
g22
ag16
asg22
S'd65'
p2298
sbsba(icolor_base
Bucket
p2299
(dp2300
g5
F648.0
sg6
(F169.14029510586039
F151.08622548137919
F70.409836070826927
tp2301
sg8
g9
(g10
g11
Ntp2302
Rp2303
(dp2304
g15
F62.517141153721923
sg16
g17
sg18
F-3.6401926982067567
sg19
F44.314127704065584
sg20
(lp2305
g22
ag16
asg22
S'd65'
p2306
sbsba(icolor_base
Bucket
p2307
(dp2308
g5
F393.0
sg6
(F54.41553319640483
F51.83560569222184
F23.72614046274737
tp2309
sg8
g9
(g10
g11
Ntp2310
Rp2311
(dp2312
g15
F21.23087219393333
sg16
g17
sg18
F-3.9847656536662335
sg19
F17.915217331286375
sg20
(lp2313
g22
ag16
asg22
S'd65'
p2314
sbsba(icolor_base
Bucket
p2315
(dp2316
g5
F341.0
sg6
(F124.26814530578486
F107.14264875130182
F44.199851819377571
tp2317
sg8
g9
(g10
g11
Ntp2318
Rp2319
(dp2320
g15
F45.610630198316692
sg16
g17
sg18
F-1.3502678425039716
sg19
F36.893188034771818
sg20
(lp2321
g22
ag16
asg22
S'd65'
p2322
sbsba(icolor_base
Bucket
p2323
(dp2324
g5
F326.0
sg6
(F87.554678545218991
F66.998197754981348
F24.352845337098959
tp2325
sg8
g9
(g10
g11
Ntp2326
Rp2327
(dp2328
g15
F29.800846657535054
sg16
g17
sg18
F3.8199089178045096
sg19
F28.727948568270001
sg20
(lp2329
g22
ag16
asg22
S'd65'
p2330
sbsba(icolor_base
Bucket
p2331
(dp2332
g5
F66.0
sg6
(F253.19950940275857
F241.37535970580535
F174.70701696262307
tp2333
sg8
g9
(g10
g11
Ntp2334
Rp2335
(dp2336
g15
F94.691399878347639
sg16
g17
sg18
F-5.6233168856424935
sg19
F33.394134071325652
sg20
(lp2337
g22
ag16
asg22
S'd65'
p2338
sbsbatp2339
a(S'photos/Stone_Pale_Ale_varietyCaps,4.png'
p2340
(lp2341
(icolor_base
Bucket
p2342
(dp2343
g5
F2926.0
sg6
(F218.44227733246282
F205.54587844698028
F114.36837547887217
tp2344
sg8
g9
(g10
g11
Ntp2345
Rp2346
(dp2347
g15
F81.981494873686032
sg16
g17
sg18
F-8.1625442416974892
sg19
F46.948817266767719
sg20
(lp2348
g22
ag16
asg22
S'd65'
p2349
sbsba(icolor_base
Bucket
p2350
(dp2351
g5
F2259.0
sg6
(F77.518984161231657
F69.271963564539746
F29.223209981972499
tp2352
sg8
g9
(g10
g11
Ntp2353
Rp2354
(dp2355
g15
F29.323515233001935
sg16
g17
sg18
F-2.0614484348014939
sg19
F25.160501243853716
sg20
(lp2356
g22
ag16
asg22
S'd65'
p2357
sbsba(icolor_base
Bucket
p2358
(dp2359
g5
F1133.0
sg6
(F173.98743071921558
F161.42216861531085
F76.539012744926367
tp2360
sg8
g9
(g10
g11
Ntp2361
Rp2362
(dp2363
g15
F65.768122672424028
sg16
g17
sg18
F-6.2881648966223169
sg19
F44.771856471113679
sg20
(lp2364
g22
ag16
asg22
S'd65'
p2365
sbsba(icolor_base
Bucket
p2366
(dp2367
g5
F694.0
sg6
(F128.38397504654861
F114.79503878513636
F45.369500316941021
tp2368
sg8
g9
(g10
g11
Ntp2369
Rp2370
(dp2371
g15
F48.311118878617336
sg16
g17
sg18
F-3.9937937992747807
sg19
F39.477637820472133
sg20
(lp2372
g22
ag16
asg22
S'd65'
p2373
sbsbatp2374
a(S'photos/Stone_Pale_Ale_varietyCaps.png'
p2375
(lp2376
(icolor_base
Bucket
p2377
(dp2378
g5
F3902.0
sg6
(F229.0596286754033
F202.31573792847158
F97.120176336481791
tp2379
sg8
g9
(g10
g11
Ntp2380
Rp2381
(dp2382
g15
F81.709676022866347
sg16
g17
sg18
F-3.0176147103600504
sg19
F54.934971795510656
sg20
(lp2383
g22
ag16
asg22
S'd65'
p2384
sbsba(icolor_base
Bucket
p2385
(dp2386
g5
F1585.0
sg6
(F176.28156295641267
F154.75555649156598
F69.406390818820327
tp2387
sg8
g9
(g10
g11
Ntp2388
Rp2389
(dp2390
g15
F64.244574810935674
sg16
g17
sg18
F-2.8212719118569374
sg19
F46.922850289133287
sg20
(lp2391
g22
ag16
asg22
S'd65'
p2392
sbsba(icolor_base
Bucket
p2393
(dp2394
g5
F642.0
sg6
(F40.408627314204708
F38.820948101603371
F20.209718339603164
tp2395
sg8
g9
(g10
g11
Ntp2396
Rp2397
(dp2398
g15
F15.236954795959502
sg16
g17
sg18
F-3.1978725764529869
sg19
g113
(g117
S'~\xf3T\x8e\rn)@'
p2399
tp2400
Rp2401
sg20
(lp2402
g22
ag16
asg22
S'd65'
p2403
sbsba(icolor_base
Bucket
p2404
(dp2405
g5
F583.0
sg6
(F126.03646524633109
F106.78195639425442
F44.778579508233861
tp2406
sg8
g9
(g10
g11
Ntp2407
Rp2408
(dp2409
g15
F45.826694627061372
sg16
g17
sg18
F-0.34253375064852154
sg19
F36.690188876420905
sg20
(lp2410
g22
ag16
asg22
S'd65'
p2411
sbsba(icolor_base
Bucket
p2412
(dp2413
g5
F384.0
sg6
(F80.648198157566455
F63.473945699579978
F21.308793489575635
tp2414
sg8
g9
(g10
g11
Ntp2415
Rp2416
(dp2417
g15
F27.733264687886084
sg16
g17
sg18
F2.5914426274573632
sg19
F27.841132566179105
sg20
(lp2418
g22
ag16
asg22
S'd65'
p2419
sbsbatp2420
a(S"photos/Trader_Joe's_Hefeweizen.png"
p2421
(lp2422
(icolor_base
Bucket
p2423
(dp2424
g5
F9647.0
sg6
(F17.034227421820237
F73.697910130695334
F129.35755966300658
tp2425
sg8
g9
(g10
g11
Ntp2426
Rp2427
(dp2428
g15
F30.881074050376505
sg16
g17
sg18
F3.8685994130963905
sg19
F-35.97922749778192
sg20
(lp2429
g22
ag16
asg22
S'd65'
p2430
sbsba(icolor_base
Bucket
p2431
(dp2432
g5
F2353.0
sg6
(F21.569738969464289
F39.150949572837163
F52.365383660197459
tp2433
sg8
g9
(g10
g11
Ntp2434
Rp2435
(dp2436
g15
F14.786688527002134
sg16
g17
sg18
F-2.5578012518367164
sg19
F-10.638828418769307
sg20
(lp2437
g22
ag16
asg22
S'd65'
p2438
sbsba(icolor_base
Bucket
p2439
(dp2440
g5
F788.0
sg6
(F239.46580143138604
F243.21664570107211
F185.3328592436211
tp2441
sg8
g9
(g10
g11
Ntp2442
Rp2443
(dp2444
g15
F94.293132490762574
sg16
g17
sg18
F-10.50105151800701
sg19
F27.604900716624847
sg20
(lp2445
g22
ag16
asg22
S'd65'
p2446
sbsba(icolor_base
Bucket
p2447
(dp2448
g5
F694.0
sg6
(F25.595016475598626
F107.45491560459344
F170.07378146729513
tp2449
sg8
g9
(g10
g11
Ntp2450
Rp2451
(dp2452
g15
F43.706531167314395
sg16
g17
sg18
F-0.15285537098524982
sg19
F-40.271307406249846
sg20
(lp2453
g22
ag16
asg22
S'd65'
p2454
sbsba(icolor_base
Bucket
p2455
(dp2456
g5
F337.0
sg6
(F161.8889118311813
F158.35722341616389
F81.47470404838343
tp2457
sg8
g9
(g10
g11
Ntp2458
Rp2459
(dp2460
g15
F63.941406307564662
sg16
g17
sg18
F-9.475110214867799
sg19
F40.382905122696613
sg20
(lp2461
g22
ag16
asg22
S'd65'
p2462
sbsba(icolor_base
Bucket
p2463
(dp2464
g5
F172.0
sg6
(F186.10754071042015
F206.84442996679343
F113.07456895932566
tp2465
sg8
g9
(g10
g11
Ntp2466
Rp2467
(dp2468
g15
F79.759803263597206
sg16
g17
sg18
F-21.50033192274925
sg19
F44.153793607299541
sg20
(lp2469
g22
ag16
asg22
S'd65'
p2470
sbsbatp2471
a(S"photos/Trader_Joe's_Hofbrau_Bock.png"
p2472
(lp2473
(icolor_base
Bucket
p2474
(dp2475
g5
F8918.0
sg6
(F63.993213833537034
F116.60849955439481
F22.861746714253165
tp2476
sg8
g9
(g10
g11
Ntp2477
Rp2478
(dp2479
g15
F44.0516269373732
sg16
g17
sg18
F-34.113215962186111
sg19
F42.904941563329977
sg20
(lp2480
g22
ag16
asg22
S'd65'
p2481
sbsba(icolor_base
Bucket
p2482
(dp2483
g5
F1664.0
sg6
(F43.762238370728404
F81.041843876824956
F15.736705167908131
tp2484
sg8
g9
(g10
g11
Ntp2485
Rp2486
(dp2487
g15
F30.538617271486423
sg16
g17
sg18
F-25.606206869590586
sg19
F32.061917916379365
sg20
(lp2488
g22
ag16
asg22
S'd65'
p2489
sbsba(icolor_base
Bucket
p2490
(dp2491
g5
F1276.0
sg6
(F8.7433838492022034
F21.228696998417799
F14.201875654501185
tp2492
sg8
g9
(g10
g11
Ntp2493
Rp2494
(dp2495
g15
g113
(g117
S'\xdc\xd8\xac\xc3)\x9f\x16@'
p2496
tp2497
Rp2498
sg16
g17
sg18
g113
(g117
S'\xd8\x8f\x83\x94\x9c\x1f\x16\xc0'
p2499
tp2500
Rp2501
sg19
g113
(g117
S'l\x80\x91 \xf1i\x03@'
p2502
tp2503
Rp2504
sg20
(lp2505
g22
ag16
asg22
S'd65'
p2506
sbsba(icolor_base
Bucket
p2507
(dp2508
g5
F1141.0
sg6
(F203.67173970456079
F228.76958943261835
F134.65221255852379
tp2509
sg8
g9
(g10
g11
Ntp2510
Rp2511
(dp2512
g15
F87.302496361506854
sg16
g17
sg18
F-22.900704273185578
sg19
F43.044081698054249
sg20
(lp2513
g22
ag16
asg22
S'd65'
p2514
sbsba(icolor_base
Bucket
p2515
(dp2516
g5
F987.0
sg6
(F16.531697751483545
F45.502399565447412
F10.863774222517851
tp2517
sg8
g9
(g10
g11
Ntp2518
Rp2519
(dp2520
g15
F15.989466292283026
sg16
g17
sg18
F-19.28457669157066
sg19
g113
(g117
S'\xdb%g`\xa942@'
p2521
tp2522
Rp2523
sg20
(lp2524
g22
ag16
asg22
S'd65'
p2525
sbsba(icolor_base
Bucket
p2526
(dp2527
g5
F439.0
sg6
(F145.01333060954164
F175.77463830249098
F91.392996393216251
tp2528
sg8
g9
(g10
g11
Ntp2529
Rp2530
(dp2531
g15
F67.891698076600179
sg16
g17
sg18
F-24.64683649084931
sg19
F39.841831542599216
sg20
(lp2532
g22
ag16
asg22
S'd65'
p2533
sbsba(icolor_base
Bucket
p2534
(dp2535
g5
F24.0
sg6
(F89.6875
F145.9375
F45.875000000000014
tp2536
sg8
g9
(g10
g11
Ntp2537
Rp2538
(dp2539
g15
F54.99810897510082
sg16
g17
sg18
F-35.896875756523229
sg19
F45.38219058317479
sg20
(lp2540
g22
ag16
asg22
S'd65'
p2541
sbsbatp2542
a(S'photos/Trumler_Pils.png'
p2543
(lp2544
(icolor_base
Bucket
p2545
(dp2546
g5
F4788.0
sg6
(F209.14011597809218
F169.70702239181603
F85.536427643180701
tp2547
sg8
g9
(g10
g11
Ntp2548
Rp2549
(dp2550
g15
F71.540304151295175
sg16
g17
sg18
F4.5619327316629992
sg19
F47.940261415099727
sg20
(lp2551
g22
ag16
asg22
S'd65'
p2552
sbsba(icolor_base
Bucket
p2553
(dp2554
g5
F1099.0
sg6
(F158.78856309086558
F126.45037641974915
F62.542929136919611
tp2555
sg8
g9
(g10
g11
Ntp2556
Rp2557
(dp2558
g15
F54.712595906978663
sg16
g17
sg18
F5.2225138312333446
sg19
F38.567221289476258
sg20
(lp2559
g22
ag16
asg22
S'd65'
p2560
sbsba(icolor_base
Bucket
p2561
(dp2562
g5
F1065.0
sg6
(F106.02911116801346
F79.725907052104318
F36.673391639182974
tp2563
sg8
g9
(g10
g11
Ntp2564
Rp2565
(dp2566
g15
F35.859827951765745
sg16
g17
sg18
F5.5933503181778139
sg19
F29.05305902304416
sg20
(lp2567
g22
ag16
asg22
S'd65'
p2568
sbsba(icolor_base
Bucket
p2569
(dp2570
g5
F199.0
sg6
(F62.357927871649757
F56.626973696226884
F30.394738508901717
tp2571
sg8
g9
(g10
g11
Ntp2572
Rp2573
(dp2574
g15
F23.817045205017159
sg16
g17
sg18
F-2.412566677634703
sg19
F17.562256424863389
sg20
(lp2575
g22
ag16
asg22
S'd65'
p2576
sbsba(icolor_base
Bucket
p2577
(dp2578
g5
F53.0
sg6
(F66.41145788257468
F45.133015079695809
F29.007932176417413
tp2579
sg8
g9
(g10
g11
Ntp2580
Rp2581
(dp2582
g15
F20.533455975644436
sg16
g17
sg18
F7.3872122970383982
sg19
F14.146151801086676
sg20
(lp2583
g22
ag16
asg22
S'd65'
p2584
sbsbatp2585
a(S'photos/Trumler_Pils_normal.png'
p2586
(lp2587
(icolor_base
Bucket
p2588
(dp2589
g5
F2740.0
sg6
(F183.45214325307947
F168.7969219731709
F145.53604850238222
tp2590
sg8
g9
(g10
g11
Ntp2591
Rp2592
(dp2593
g15
F69.83767545154538
sg16
g17
sg18
F1.250406622767708
sg19
F13.701808167065588
sg20
(lp2594
g22
ag16
asg22
S'd65'
p2595
sbsba(icolor_base
Bucket
p2596
(dp2597
g5
F1746.0
sg6
(F136.18130162059958
F125.50015606002395
F105.78794546682539
tp2598
sg8
g9
(g10
g11
Ntp2599
Rp2600
(dp2601
g15
F53.164266550142628
sg16
g17
sg18
F0.3368922823629994
sg19
F12.274237786492881
sg20
(lp2602
g22
ag16
asg22
S'd65'
p2603
sbsba(icolor_base
Bucket
p2604
(dp2605
g5
F1430.0
sg6
(F45.066046983515911
F40.219985959006365
F33.172837172560534
tp2606
sg8
g9
(g10
g11
Ntp2607
Rp2608
(dp2609
g15
F16.431166194742552
sg16
g17
sg18
F0.85580803982909792
sg19
F5.4515289292925706
sg20
(lp2610
g22
ag16
asg22
S'd65'
p2611
sbsba(icolor_base
Bucket
p2612
(dp2613
g5
F448.0
sg6
(F95.724856766505724
F86.640080868858163
F72.789365903964892
tp2614
sg8
g9
(g10
g11
Ntp2615
Rp2616
(dp2617
g15
F37.452639967226702
sg16
g17
sg18
F1.1073882864591211
sg19
F9.4726225850004564
sg20
(lp2618
g22
ag16
asg22
S'd65'
p2619
sbsba(icolor_base
Bucket
p2620
(dp2621
g5
F444.0
sg6
(F232.58250693915872
F221.73364126358453
F199.76288233421616
tp2622
sg8
g9
(g10
g11
Ntp2623
Rp2624
(dp2625
g15
F88.798028741603957
sg16
g17
sg18
F0.13837274448574854
sg19
F12.130769923606977
sg20
(lp2626
g22
ag16
asg22
S'd65'
p2627
sbsbatp2628
a(S'photos/Victory_Golden_Monkey.png'
p2629
(lp2630
(icolor_base
Bucket
p2631
(dp2632
g5
F4924.0
sg6
(F69.651540676678025
F59.172041262596785
F218.37284782824949
tp2633
sg8
g9
(g10
g11
Ntp2634
Rp2635
(dp2636
g15
F36.913184379485912
sg16
g17
sg18
F52.207452208664215
sg19
F-79.115200475758982
sg20
(lp2637
g22
ag16
asg22
S'd65'
p2638
sbsba(icolor_base
Bucket
p2639
(dp2640
g5
F1405.0
sg6
(F235.71141499938804
F106.96487735493261
F94.724263420894346
tp2641
sg8
g9
(g10
g11
Ntp2642
Rp2643
(dp2644
g15
F60.938749718022351
sg16
g17
sg18
F48.953282853779257
sg19
F31.109226254731293
sg20
(lp2645
g22
ag16
asg22
S'd65'
p2646
sbsba(icolor_base
Bucket
p2647
(dp2648
g5
F245.0
sg6
(F215.98649869714632
F214.02409236775551
F210.47015449054663
tp2649
sg8
g9
(g10
g11
Ntp2650
Rp2651
(dp2652
g15
F85.678021789118645
sg16
g17
sg18
F-0.03068623014323979
sg19
F2.2038120320193366
sg20
(lp2653
g22
ag16
asg22
S'd65'
p2654
sbsba(icolor_base
Bucket
p2655
(dp2656
g5
F139.0
sg6
(F158.80595550230353
F75.30434498443276
F122.5627724246223
tp2657
sg8
g9
(g10
g11
Ntp2658
Rp2659
(dp2660
g15
F43.994648874695521
sg16
g17
sg18
F40.714603441307283
sg19
F-10.880262738181322
sg20
(lp2661
g22
ag16
asg22
S'd65'
p2662
sbsba(icolor_base
Bucket
p2663
(dp2664
g5
F123.0
sg6
(F114.24915353948607
F64.934389867317449
F145.73343777116258
tp2665
sg8
g9
(g10
g11
Ntp2666
Rp2667
(dp2668
g15
F36.806121554089131
sg16
g17
sg18
F36.554412459071067
sg19
F-36.553066548841997
sg20
(lp2669
g22
ag16
asg22
S'd65'
p2670
sbsba(icolor_base
Bucket
p2671
(dp2672
g5
F120.0
sg6
(F189.28671905186272
F183.27557734501534
F206.93359408327055
tp2673
sg8
g9
(g10
g11
Ntp2674
Rp2675
(dp2676
g15
F75.569840686609325
sg16
g17
sg18
F6.711635534659754
sg19
F-11.324131687126826
sg20
(lp2677
g22
ag16
asg22
S'd65'
p2678
sbsba(icolor_base
Bucket
p2679
(dp2680
g5
F105.0
sg6
(F198.82680693521584
F85.153415429634734
F100.67071117767746
tp2681
sg8
g9
(g10
g11
Ntp2682
Rp2683
(dp2684
g15
F51.360510271427103
sg16
g17
sg18
F46.84462851640675
sg19
F13.875382437528948
sg20
(lp2685
g22
ag16
asg22
S'd65'
p2686
sbsba(icolor_base
Bucket
p2687
(dp2688
g5
F46.0
sg6
(F152.82016796140292
F144.23766793943031
F202.58483735871607
tp2689
sg8
g9
(g10
g11
Ntp2690
Rp2691
(dp2692
g15
F62.533264074618984
sg16
g17
sg18
F16.039264739051539
sg19
F-29.202164429085343
sg20
(lp2693
g22
ag16
asg22
S'd65'
p2694
sbsbatp2695
a(S'photos/Widmer.png'
p2696
(lp2697
(icolor_base
Bucket
p2698
(dp2699
g5
F1964.0
sg6
(F245.18164222323307
F204.59847455502577
F98.589449456371412
tp2700
sg8
g9
(g10
g11
Ntp2701
Rp2702
(dp2703
g15
F83.954492354238752
sg16
g17
sg18
F2.1866800745907744
sg19
F56.964114047938111
sg20
(lp2704
g22
ag16
asg22
S'd65'
p2705
sbsba(icolor_base
Bucket
p2706
(dp2707
g5
F1777.0
sg6
(F50.13474672879164
F47.549274735221374
F37.149000515650528
tp2708
sg8
g9
(g10
g11
Ntp2709
Rp2710
(dp2711
g15
F19.743493086116771
sg16
g17
sg18
F-1.3881269150141096
sg19
F7.3829226326063484
sg20
(lp2712
g22
ag16
asg22
S'd65'
p2713
sbsba(icolor_base
Bucket
p2714
(dp2715
g5
F969.0
sg6
(F233.21912291786069
F226.60404321888137
F199.92384600295804
tp2716
sg8
g9
(g10
g11
Ntp2717
Rp2718
(dp2719
g15
F90.059743329342254
sg16
g17
sg18
F-2.4246660584715807
sg19
F13.919764646771181
sg20
(lp2720
g22
ag16
asg22
S'd65'
p2721
sbsbatp2722
a(S'photos/XX.png'
p2723
(lp2724
(icolor_base
Bucket
p2725
(dp2726
g5
F7080.0
sg6
(F35.794540769543445
F82.706991728539577
F68.175832629817947
tp2727
sg8
g9
(g10
g11
Ntp2728
Rp2729
(dp2730
g15
F31.7581158976949
sg16
g17
sg18
F-20.222893920406353
sg19
F3.9395639239275027
sg20
(lp2731
g22
ag16
asg22
S'd65'
p2732
sbsba(icolor_base
Bucket
p2733
(dp2734
g5
F3749.0
sg6
(F134.47383719415146
F49.067413044227223
F38.569710047861328
tp2735
sg8
g9
(g10
g11
Ntp2736
Rp2737
(dp2738
g15
F32.728367911657251
sg16
g17
sg18
F35.795776953018084
sg19
F25.297266732514988
sg20
(lp2739
g22
ag16
asg22
S'd65'
p2740
sbsba(icolor_base
Bucket
p2741
(dp2742
g5
F2309.0
sg6
(F110.04513254740831
F135.26914023570194
F96.690534287196343
tp2743
sg8
g9
(g10
g11
Ntp2744
Rp2745
(dp2746
g15
F53.498559972611048
sg16
g17
sg18
F-16.467440665216937
sg19
F17.573178536709499
sg20
(lp2747
g22
ag16
asg22
S'd65'
p2748
sbsba(icolor_base
Bucket
p2749
(dp2750
g5
F424.0
sg6
(F136.77496704703211
F95.674444443068737
F71.153524852315073
tp2751
sg8
g9
(g10
g11
Ntp2752
Rp2753
(dp2754
g15
F44.43284086369566
sg16
g17
sg18
F13.486150355541348
sg19
F20.895798270644594
sg20
(lp2755
g22
ag16
asg22
S'd65'
p2756
sbsba(icolor_base
Bucket
p2757
(dp2758
g5
F223.0
sg6
(F123.97301345585616
F115.48308010636033
F82.730432783513095
tp2759
sg8
g9
(g10
g11
Ntp2760
Rp2761
(dp2762
g15
F48.475241728654396
sg16
g17
sg18
F-1.8099881710650911
sg19
F19.001695551854571
sg20
(lp2763
g22
ag16
asg22
S'd65'
p2764
sbsba(icolor_base
Bucket
p2765
(dp2766
g5
F197.0
sg6
(F94.745399911770676
F56.876823933828319
F42.130082684483
tp2767
sg8
g9
(g10
g11
Ntp2768
Rp2769
(dp2770
g15
F28.185661825011913
sg16
g17
sg18
F15.062024069860346
sg19
F16.389238270131155
sg20
(lp2771
g22
ag16
asg22
S'd65'
p2772
sbsba(icolor_base
Bucket
p2773
(dp2774
g5
F160.0
sg6
(F86.008756760900411
F97.148601300913711
F65.96412735489524
tp2775
sg8
g9
(g10
g11
Ntp2776
Rp2777
(dp2778
g15
F39.447280643770874
sg16
g17
sg18
F-10.296192263845844
sg19
F16.315975985662746
sg20
(lp2779
g22
ag16
asg22
S'd65'
p2780
sbsba(icolor_base
Bucket
p2781
(dp2782
g5
F150.0
sg6
(F100.65871544638541
F81.370766932314098
F54.334374284586019
tp2783
sg8
g9
(g10
g11
Ntp2784
Rp2785
(dp2786
g15
F35.826385471832225
sg16
g17
sg18
F4.2969042907997359
sg19
F19.00713219520155
sg20
(lp2787
g22
ag16
asg22
S'd65'
p2788
sbsbatp2789
a.