(lp0
(S'photos/Amstel_Light.png'
p1
(lp2
(icolor_base
Bucket
p3
(dp4
S'count'
p5
F5852.0
sS'rgb_aves'
p6
(F201.01342017395262
F212.92093470710782
F217.11979449381406
tp7
sS'proportion'
p8
F0.40389260818552003
sS'col'
p9
ccopy_reg
_reconstructor
p10
(ccolormath_fast.color_objects
LabColor
p11
c__builtin__
object
p12
Ntp13
Rp14
(dp15
S'lab_l'
p16
F84.49158770982838
sS'observer'
p17
S'2'
p18
sS'lab_a'
p19
F-3.2759561783642366
sS'lab_b'
p20
F-3.3751995966671222
sS'OTHER_VALUES'
p21
(lp22
S'illuminant'
p23
ag17
asg23
S'd65'
p24
sbsba(icolor_base
Bucket
p25
(dp26
g5
F4465.0
sg6
(F152.84652420086172
F35.742169632141213
F35.985699590833647
tp27
sg8
F0.30816481468700391
sg9
g10
(g11
g12
Ntp28
Rp29
(dp30
g16
F34.320311199462871
sg17
g18
sg19
F47.705329279450368
sg20
F29.892667615974066
sg21
(lp31
g23
ag17
asg23
g24
sbsba(icolor_base
Bucket
p32
(dp33
g5
F1904.0
sg6
(F176.8014216223481
F189.82756787676874
F133.30725603643279
tp34
sg8
F0.13141003519911656
sg9
g10
(g11
g12
Ntp35
Rp36
(dp37
g16
F74.741242682708716
sg17
g18
sg19
F-14.01893477273819
sg20
F27.357915635600527
sg21
(lp38
g23
ag17
asg23
g24
sbsba(icolor_base
Bucket
p39
(dp40
g5
F1043.0
sg6
(F17.06512643283051
F34.643242544379135
F40.642186200100213
tp41
sg8
F0.071985644281869002
sg9
g10
(g11
g12
Ntp42
Rp43
(dp44
g16
F12.488413881663412
sg17
g18
sg19
F-5.3321454461160016
sg20
F-6.3177737259678901
sg21
(lp45
g23
ag17
asg23
g24
sbsba(icolor_base
Bucket
p46
(dp47
g5
F323.0
sg6
(F123.08679456430428
F145.18145052214931
F153.38536365190643
tp48
sg8
F0.022292773828421562
sg9
g10
(g11
g12
Ntp49
Rp50
(dp51
g16
F58.752563033682208
sg17
g18
sg19
F-5.9943557751860883
sg20
F-6.8477875702358526
sg21
(lp52
g23
ag17
asg23
g24
sbsba(icolor_base
Bucket
p53
(dp54
g5
F317.0
sg6
(F67.373298929327461
F94.756683650489094
F103.94217012351658
tp55
sg8
F0.021878666574642831
sg9
g10
(g11
g12
Ntp56
Rp57
(dp58
g16
F38.510406466006899
sg17
g18
sg19
F-7.8663514480623586
sg20
F-8.4530112378378597
sg21
(lp59
g23
ag17
asg23
g24
sbsba(icolor_base
Bucket
p60
(dp61
g5
F181.0
sg6
(F192.29243003987165
F168.99732780069442
F173.99107578901845
tp62
sg8
F0.012492235488991648
sg9
g10
(g11
g12
Ntp63
Rp64
(dp65
g16
F71.309311711865348
sg17
g18
sg19
F9.1777112100011049
sg20
F0.48727690926166911
sg21
(lp66
g23
ag17
asg23
g24
sbsba(icolor_base
Bucket
p67
(dp68
g5
F115.0
sg6
(F158.95814718892635
F109.00818581360699
F113.46581721908071
tp69
sg8
F0.007937055697425633
sg9
g10
(g11
g12
Ntp70
Rp71
(dp72
g16
F51.268874638227956
sg17
g18
sg19
F20.480282245595781
sg20
F5.834236942833293
sg21
(lp73
g23
ag17
asg23
g24
sbsbatp74
a(S'photos/Anderson_Valley_Brewery.png'
p75
(lp76
(icolor_base
Bucket
p77
(dp78
g5
F5802.0
sg6
(F27.175527175368067
F32.536693288443765
F30.554042360100468
tp79
sg8
F0.40105066703532177
sg9
g10
(g11
g12
Ntp80
Rp81
(dp82
g16
F12.087721954864872
sg17
g18
sg19
F-3.2634072181866038
sg20
F0.43166736175723197
sg21
(lp83
g23
ag17
asg23
g24
sbsba(icolor_base
Bucket
p84
(dp85
g5
F3784.0
sg6
(F226.85506748848434
F164.24532340073219
F14.262688625064987
tp86
sg8
F0.26156079353010298
sg9
g10
(g11
g12
Ntp87
Rp88
(dp89
g16
F71.498094192256687
sg17
g18
sg19
F12.649980656201599
sg20
F73.391911968456554
sg21
(lp90
g23
ag17
asg23
g24
sbsba(icolor_base
Bucket
p91
(dp92
g5
F3100.0
sg6
(F205.18962499198653
F228.36367357653904
F36.46622165036375
tp93
sg8
F0.21428077694062347
sg9
g10
(g11
g12
Ntp94
Rp95
(dp96
g16
F86.302333423249891
sg17
g18
sg19
F-28.798499844809587
sg20
F80.217072235863412
sg21
(lp97
g23
ag17
asg23
g24
sbsba(icolor_base
Bucket
p98
(dp99
g5
F451.0
sg6
(F141.59976282167059
F114.24993073562298
F60.930595855985182
tp100
sg8
F0.031174396903297159
sg9
g10
(g11
g12
Ntp101
Rp102
(dp103
g16
F49.645043187698491
sg17
g18
sg19
F4.2592138384360823
sg20
F33.198969472396378
sg21
(lp104
g23
ag17
asg23
g24
sbsba(icolor_base
Bucket
p105
(dp106
g5
F411.0
sg6
(F85.925030212665519
F63.739657952512218
F28.877936695294316
tp107
sg8
F0.028409483652450405
sg9
g10
(g11
g12
Ntp108
Rp109
(dp110
g16
F28.731776966393511
sg17
g18
sg19
F5.0860479489292789
sg20
F24.719007339303612
sg21
(lp111
g23
ag17
asg23
g24
sbsba(icolor_base
Bucket
p112
(dp113
g5
F257.0
sg6
(F62.422649016687757
F79.545595526101366
F80.836128592962382
tp114
sg8
F0.0177645676366904
sg9
g10
(g11
g12
Ntp115
Rp116
(dp117
g16
F32.602555425900754
sg17
g18
sg19
F-6.7147442079426582
sg20
F-2.9015961378754285
sg21
(lp118
g23
ag17
asg23
g24
sbsbatp119
a(S'photos/Bass.png'
p120
(lp121
(icolor_base
Bucket
p122
(dp123
g5
F11319.0
sg6
(F126.89113260276459
F125.97923107892892
F71.714466849486143
tp124
sg8
F0.78051303268514682
sg9
g10
(g11
g12
Ntp125
Rp126
(dp127
g16
F51.726040232923964
sg17
g18
sg19
F-8.1108561183499965
sg20
F29.466534979430847
sg21
(lp128
g23
ag17
asg23
g24
sbsba(icolor_base
Bucket
p129
(dp130
g5
F2780.0
sg6
(F191.52215637505662
F32.052727806168726
F18.748415662599228
tp131
sg8
F0.19169769686939733
sg9
g10
(g11
g12
Ntp132
Rp133
(dp134
g16
F41.672410323051906
sg17
g18
sg19
F60.134658864402581
sg20
F48.390893662290878
sg21
(lp135
g23
ag17
asg23
g24
sbsba(icolor_base
Bucket
p136
(dp137
g5
F380.0
sg6
(F126.29340883929385
F67.924458572404802
F35.825667840423364
tp138
sg8
F0.026203282305888843
sg9
g10
(g11
g12
Ntp139
Rp140
(dp141
g16
F35.396487806361129
sg17
g18
sg19
F22.052159962921341
sg20
F29.799340699734756
sg21
(lp142
g23
ag17
asg23
g24
sbsba(icolor_base
Bucket
p143
(dp144
g5
F9.0
sg6
(F125.77500000000001
F31.625
F12.450000000000003
tp145
sg8
F0.00062060405461315685
sg9
g10
(g11
g12
Ntp146
Rp147
(dp148
g16
F28.104328212756933
sg17
g18
sg19
F39.363708555296142
sg20
cnumpy.core.multiarray
scalar
p149
(cnumpy
dtype
p150
(S'f8'
p151
I0
I1
tp152
Rp153
(I3
S'<'
p154
NNNI-1
I-1
I0
tp155
bS'b2`\x8a\xec\x9cA@'
p156
tp157
Rp158
sg21
(lp159
g23
ag17
asg23
g24
sbsbatp160
a(S'photos/Becks.png'
p161
(lp162
(icolor_base
Bucket
p163
(dp164
g5
F8401.0
sg6
(F105.15599973845038
F142.9532637873094
F163.01099819027456
tp165
sg8
F0.57953918322295805
sg9
g10
(g11
g12
Ntp166
Rp167
(dp168
g16
F57.358472195546184
sg17
g18
sg19
F-8.0122961086311904
sg20
F-14.771256940423005
sg21
(lp169
g23
ag17
asg23
g24
sbsba(icolor_base
Bucket
p170
(dp171
g5
F2769.0
sg6
(F29.968465551171928
F45.905540767038666
F53.226335621758679
tp172
sg8
F0.19101821192052981
sg9
g10
(g11
g12
Ntp173
Rp174
(dp175
g16
F17.859518990858895
sg17
g18
sg19
F-4.4329211101289676
sg20
F-6.6023934600390906
sg21
(lp176
g23
ag17
asg23
g24
sbsba(icolor_base
Bucket
p177
(dp178
g5
F2439.0
sg6
(F76.245196202518642
F102.50990545954912
F120.78944906575359
tp179
sg8
F0.16825331125827814
sg9
g10
(g11
g12
Ntp180
Rp181
(dp182
g16
F42.180446224015888
sg17
g18
sg19
F-5.0572818414836016
sg20
F-13.243634724371866
sg21
(lp183
g23
ag17
asg23
g24
sbsba(icolor_base
Bucket
p184
(dp185
g5
F575.0
sg6
(F151.16927977028911
F46.765600354577117
F49.863554540558489
tp186
sg8
F0.039666114790286977
sg9
g10
(g11
g12
Ntp187
Rp188
(dp189
g16
F35.682572243140044
sg17
g18
sg19
F43.503830390936052
sg20
F22.796150699046038
sg21
(lp190
g23
ag17
asg23
g24
sbsba(icolor_base
Bucket
p191
(dp192
g5
F144.0
sg6
(F129.08858257325133
F187.51076111169743
F214.98916582377851
tp193
sg8
F0.0099337748344370865
sg9
g10
(g11
g12
Ntp194
Rp195
(dp196
g16
F73.244743540117085
sg17
g18
sg19
F-12.182197646243953
sg20
F-19.566026579447595
sg21
(lp197
g23
ag17
asg23
g24
sbsba(icolor_base
Bucket
p198
(dp199
g5
F68.0
sg6
(F124.43902984881336
F81.633403862679216
F95.097309547061926
tp200
sg8
F0.0046909492273730681
sg9
g10
(g11
g12
Ntp201
Rp202
(dp203
g16
F39.826135856016315
sg17
g18
sg19
F19.568117219117305
sg20
F-0.35596933057515656
sg21
(lp204
g23
ag17
asg23
g24
sbsba(icolor_base
Bucket
p205
(dp206
g5
F39.0
sg6
(F148.86548543170937
F124.72468025333301
F140.85529789628461
tp207
sg8
F0.0026903973509933773
sg9
g10
(g11
g12
Ntp208
Rp209
(dp210
g16
F55.052058842986781
sg17
g18
sg19
F12.102055244438636
sg20
F-5.1937842784017585
sg21
(lp211
g23
ag17
asg23
g24
sbsbatp212
a(S'photos/Black_Toad_Dark_Ale.png'
p213
(lp214
(icolor_base
Bucket
p215
(dp216
g5
I14490
sg6
(F18.0
F17.0
F17.0
tp217
sg8
F1.0
sg9
g10
(g11
g12
Ntp218
Rp219
(dp220
g16
g149
(g153
S'\xc0\x83NA\x0c\x98\x14@'
p221
tp222
Rp223
sg17
g18
sg19
g149
(g153
S'\xeax \xa0\xedq\xd8?'
p224
tp225
Rp226
sg20
g149
(g153
S'p\xb7!\xa3\xe2\x15\xc1?'
p227
tp228
Rp229
sg21
(lp230
g23
ag17
asg23
g24
sbsbatp231
a(S'photos/Corona.png'
p232
(lp233
(icolor_base
Bucket
p234
(dp235
g5
F9401.0
sg6
(F8.6343295299624163
F46.523388854698716
F98.832709854760296
tp236
sg8
F0.64870273254209221
sg9
g10
(g11
g12
Ntp237
Rp238
(dp239
g16
F20.010529420992562
sg17
g18
sg19
F9.2182672543149042
sg20
F-34.339821591686857
sg21
(lp240
g23
ag17
asg23
g24
sbsba(icolor_base
Bucket
p241
(dp242
g5
F2707.0
sg6
(F145.09942663732514
F226.86931967203643
F236.78051284898709
tp243
sg8
F0.18679271322108751
sg9
g10
(g11
g12
Ntp244
Rp245
(dp246
g16
F85.539018776768529
sg17
g18
sg19
F-22.460636344883323
sg20
F-12.764399338602871
sg21
(lp247
g23
ag17
asg23
g24
sbsba(icolor_base
Bucket
p248
(dp249
g5
F533.0
sg6
(F236.32941073468513
F251.72087363921156
F249.19535447582493
tp250
sg8
F0.036778912503450181
sg9
g10
(g11
g12
Ntp251
Rp252
(dp253
g16
F97.749718292928407
sg17
g18
sg19
F-5.7648459934975254
sg20
F-0.37628994281122541
sg21
(lp254
g23
ag17
asg23
g24
sbsba(icolor_base
Bucket
p255
(dp256
g5
F481.0
sg6
(F113.90352912035743
F169.61135788812197
F194.46276537725163
tp257
sg8
F0.033190725917747722
sg9
g10
(g11
g12
Ntp258
Rp259
(dp260
g16
F66.687966680204923
sg17
g18
sg19
F-12.057243000358152
sg20
F-18.047345131098869
sg21
(lp261
g23
ag17
asg23
g24
sbsba(icolor_base
Bucket
p262
(dp263
g5
F318.0
sg6
(F67.330359360418598
F111.77926493735664
F148.60505457406083
tp264
sg8
F0.021943141043334252
sg9
g10
(g11
g12
Ntp265
Rp266
(dp267
g16
F45.566681371846165
sg17
g18
sg19
F-4.288253502065964
sg20
F-24.861151637465163
sg21
(lp268
g23
ag17
asg23
g24
sbsba(icolor_base
Bucket
p269
(dp270
g5
F304.0
sg6
(F195.52147411100742
F235.76231719399601
F86.655033425588002
tp271
sg8
F0.020977090808722055
sg9
g10
(g11
g12
Ntp272
Rp273
(dp274
g16
F88.167587388223197
sg17
g18
sg19
F-33.659239141407561
sg20
F65.676343451013878
sg21
(lp275
g23
ag17
asg23
g24
sbsba(icolor_base
Bucket
p276
(dp277
g5
F205.0
sg6
(F91.08244281894244
F116.01989132269129
F59.355860540181432
tp278
sg8
F0.014145735578250069
sg9
g10
(g11
g12
Ntp279
Rp280
(dp281
g16
F45.675922540246191
sg17
g18
sg19
F-19.632786228607422
sg20
F28.41087834429057
sg21
(lp282
g23
ag17
asg23
g24
sbsba(icolor_base
Bucket
p283
(dp284
g5
F131.0
sg6
(F121.24270079868184
F159.52426584411211
F73.279720330549253
tp285
sg8
F0.0090394700524427263
sg9
g10
(g11
g12
Ntp286
Rp287
(dp288
g16
F61.383297587191223
sg17
g18
sg19
F-28.152518187205821
sg20
F40.576950348039418
sg21
(lp289
g23
ag17
asg23
g24
sbsbatp290
a(S'photos/Firestone_DBA.png'
p291
(lp292
(icolor_base
Bucket
p293
(dp294
g5
F6137.0
sg6
(F88.105997586661587
F78.617492222237644
F54.279115453975095
tp295
sg8
F0.42365042109623086
sg9
g10
(g11
g12
Ntp296
Rp297
(dp298
g16
F33.843331146317432
sg17
g18
sg19
F-0.51382764769392075
sg20
F16.145443036107032
sg21
(lp299
g23
ag17
asg23
g24
sbsba(icolor_base
Bucket
p300
(dp301
g5
F3852.0
sg6
(F34.273354081137647
F32.40061204013621
F30.250211410711092
tp302
sg8
F0.26591191495236782
sg9
g10
(g11
g12
Ntp303
Rp304
(dp305
g16
F12.395758980185704
sg17
g18
sg19
F0.47527543785835791
sg20
F1.6938323715218029
sg21
(lp306
g23
ag17
asg23
g24
sbsba(icolor_base
Bucket
p307
(dp308
g5
F2758.0
sg6
(F97.028248822997455
F19.588327924645196
F27.503959305750108
tp309
sg8
F0.19039072207648763
sg9
g10
(g11
g12
Ntp310
Rp311
(dp312
g16
F20.542240322370382
sg17
g18
sg19
F34.584194033954297
sg20
F15.947544289097976
sg21
(lp313
g23
ag17
asg23
g24
sbsba(icolor_base
Bucket
p314
(dp315
g5
F1430.0
sg6
(F142.80067014639189
F143.38738092846398
F103.71061011596248
tp316
sg8
F0.098716001656772051
sg9
g10
(g11
g12
Ntp317
Rp318
(dp319
g16
F58.493846274872226
sg17
g18
sg19
F-6.6154252261850788
sg20
F20.823341547578387
sg21
(lp320
g23
ag17
asg23
g24
sbsba(icolor_base
Bucket
p321
(dp322
g5
F87.0
sg6
(F52.848874122530482
F28.942013485146791
F33.651047185954184
tp323
sg8
F0.0060057987021952227
sg9
g10
(g11
g12
Ntp324
Rp325
(dp326
g16
F14.123528992746689
sg17
g18
sg19
F12.571732841367423
sg20
F1.60301056399762
sg21
(lp327
g23
ag17
asg23
g24
sbsba(icolor_base
Bucket
p328
(dp329
g5
F79.0
sg6
(F93.891167943170387
F107.66454172061643
F76.116696615082731
tp330
sg8
F0.0054535413502692252
sg9
g10
(g11
g12
Ntp331
Rp332
(dp333
g16
F43.692458215257098
sg17
g18
sg19
F-11.562042473957229
sg20
F16.209021024962556
sg21
(lp334
g23
ag17
asg23
g24
sbsba(icolor_base
Bucket
p335
(dp336
g5
F78.0
sg6
(F59.774695221805629
F71.245963734313506
F50.904427396322141
tp337
sg8
F0.0053845091812784757
sg9
g10
(g11
g12
Ntp338
Rp339
(dp340
g16
F28.658512532009084
sg17
g18
sg19
F-8.7873381428325299
sg20
F10.595717961368001
sg21
(lp341
g23
ag17
asg23
g24
sbsbatp342
a(S'photos/Franziskaner_Weissbier.png'
p343
(lp344
(icolor_base
Bucket
p345
(dp346
g5
F7182.0
sg6
(F31.189744149491585
F43.057816365048062
F46.421704755099775
tp347
sg8
F0.49578903769156429
sg9
g10
(g11
g12
Ntp348
Rp349
(dp350
g16
F16.583502270176488
sg17
g18
sg19
F-4.2264339208887005
sg20
F-3.6255797681149837
sg21
(lp351
g23
ag17
asg23
g24
sbsba(icolor_base
Bucket
p352
(dp353
g5
F3215.0
sg6
(F168.10866206757834
F217.54515460053182
F219.29457232565903
tp354
sg8
F0.22193842330526026
sg9
g10
(g11
g12
Ntp355
Rp356
(dp357
g16
F83.746791898956843
sg17
g18
sg19
F-15.819734228436799
sg20
F-5.7763599497380413
sg21
(lp358
g23
ag17
asg23
g24
sbsba(icolor_base
Bucket
p359
(dp360
g5
F1282.0
sg6
(F68.622951672306201
F92.26115913828211
F96.610670513394339
tp361
sg8
F0.088499240646141106
sg9
g10
(g11
g12
Ntp362
Rp363
(dp364
g16
F37.448807976024284
sg17
g18
sg19
F-7.3272224722877031
sg20
F-5.6991935896162467
sg21
(lp365
g23
ag17
asg23
g24
sbsba(icolor_base
Bucket
p366
(dp367
g5
F802.0
sg6
(F123.4503182165534
F149.77857455937561
F154.42670690503735
tp368
sg8
F0.055363799530581251
sg9
g10
(g11
g12
Ntp369
Rp370
(dp371
g16
F60.209101133691519
sg17
g18
sg19
F-8.5297609118648037
sg20
F-5.2570516356781782
sg21
(lp372
g23
ag17
asg23
g24
sbsba(icolor_base
Bucket
p373
(dp374
g5
F365.0
sg6
(F238.49875240651463
F251.07063359589165
F245.86750729664888
tp375
sg8
F0.025196741681623638
sg9
g10
(g11
g12
Ntp376
Rp377
(dp378
g16
F97.561320980307855
sg17
g18
sg19
F-5.1574867376290019
sg20
F0.90928472426961005
sg21
(lp379
g23
ag17
asg23
g24
sbsba(icolor_base
Bucket
p380
(dp381
g5
F320.0
sg6
(F147.0343551593989
F84.36894441923782
F28.629556785290209
tp382
sg8
F0.022090294077039902
sg9
g10
(g11
g12
Ntp383
Rp384
(dp385
g16
F42.205970197007083
sg17
g18
sg19
F21.842884124870288
sg20
F41.402636405556784
sg21
(lp386
g23
ag17
asg23
g24
sbsba(icolor_base
Bucket
p387
(dp388
g5
F316.0
sg6
(F67.85371024358939
F45.360172740669796
F29.58929658153103
tp389
sg8
F0.021814165401076901
sg9
g10
(g11
g12
Ntp390
Rp391
(dp392
g16
F20.826353742276993
sg17
g18
sg19
F8.50492051643878
sg20
F13.916603130204235
sg21
(lp393
g23
ag17
asg23
g24
sbsbatp394
a(S'photos/Full_Sail_Amber.png'
p395
(lp396
(icolor_base
Bucket
p397
(dp398
g5
F8611.0
sg6
(F33.736346499674468
F222.83016616668772
F81.760074455752445
tp399
sg8
F0.59418989787468945
sg9
g10
(g11
g12
Ntp400
Rp401
(dp402
g16
F78.29905979169969
sg17
g18
sg19
F-71.532111902169518
sg20
F55.216864902813214
sg21
(lp403
g23
ag17
asg23
g24
sbsba(icolor_base
Bucket
p404
(dp405
g5
F1845.0
sg6
(F22.070045339788972
F166.31679010594388
F49.052121182638004
tp406
sg8
F0.12731162020425063
sg9
g10
(g11
g12
Ntp407
Rp408
(dp409
g16
F59.583195686932001
sg17
g18
sg19
F-58.498110956218319
sg20
F48.405315377998413
sg21
(lp410
g23
ag17
asg23
g24
sbsba(icolor_base
Bucket
p411
(dp412
g5
F1046.0
sg6
(F7.3345720995562571
F26.208335740221536
F45.418966121778986
tp413
sg8
F0.072177753243168649
sg9
g10
(g11
g12
Ntp414
Rp415
(dp416
g16
F8.7674516586023969
sg17
g18
sg19
F0.20798120976885104
sg20
F-15.047178961191076
sg21
(lp417
g23
ag17
asg23
g24
sbsba(icolor_base
Bucket
p418
(dp419
g5
F987.0
sg6
(F135.94997052093416
F240.76892122076049
F233.26635398103909
tp420
sg8
F0.06810654154016009
sg9
g10
(g11
g12
Ntp421
Rp422
(dp423
g16
F88.934079270689466
sg17
g18
sg19
F-32.357508291784079
sg20
F-5.6622607096940891
sg21
(lp424
g23
ag17
asg23
g24
sbsba(icolor_base
Bucket
p425
(dp426
g5
F837.0
sg6
(F21.49897437111041
F113.81272204263962
F46.658304317458928
tp427
sg8
F0.057756003312172233
sg9
g10
(g11
g12
Ntp428
Rp429
(dp430
g16
F41.84272218920124
sg17
g18
sg19
F-41.355831401804295
sg20
F29.462303791167432
sg21
(lp431
g23
ag17
asg23
g24
sbsba(icolor_base
Bucket
p432
(dp433
g5
F452.0
sg6
(F9.7795146012738225
F58.425221097013569
F37.217359576271448
tp434
sg8
F0.031189621860336737
sg9
g10
(g11
g12
Ntp435
Rp436
(dp437
g16
F20.919644315438454
sg17
g18
sg19
F-21.744748177727953
sg20
F8.6213321774245131
sg21
(lp438
g23
ag17
asg23
g24
sbsba(icolor_base
Bucket
p439
(dp440
g5
F183.0
sg6
(F40.435779297564871
F74.273420277611493
F88.853496531496916
tp441
sg8
F0.012627656638145184
sg9
g10
(g11
g12
Ntp442
Rp443
(dp444
g16
F29.587462611857042
sg17
g18
sg19
F-7.5827942766597545
sg20
F-12.68297865069693
sg21
(lp445
g23
ag17
asg23
g24
sbsba(icolor_base
Bucket
p446
(dp447
g5
F129.0
sg6
(F119.47518353013879
F194.00577879878867
F210.14597791675726
tp448
sg8
F0.0089014628760695561
sg9
g10
(g11
g12
Ntp449
Rp450
(dp451
g16
F74.289758602996301
sg17
g18
sg19
F-19.134983926657522
sg20
F-15.316518850479731
sg21
(lp452
g23
ag17
asg23
g24
sbsba(icolor_base
Bucket
p453
(dp454
g5
F125.0
sg6
(F68.963654766283213
F121.36486750086833
F138.42292533867376
tp455
sg8
F0.008625448523323212
sg9
g10
(g11
g12
Ntp456
Rp457
(dp458
g16
F47.974125912927754
sg17
g18
sg19
F-12.46218726486642
sg20
F-14.648050935852929
sg21
(lp459
g23
ag17
asg23
g24
sbsbatp460
a(S'photos/Full_Sail_IPA.png'
p461
(lp462
(icolor_base
Bucket
p463
(dp464
g5
F8429.0
sg6
(F208.69949875437081
F191.51371988673699
F7.0426665030435274
tp465
sg8
F0.58163124482473083
sg9
g10
(g11
g12
Ntp466
Rp467
(dp468
g16
F76.843043331291227
sg17
g18
sg19
F-9.9604067693820362
sg20
F77.305313829641293
sg21
(lp469
g23
ag17
asg23
g24
sbsba(icolor_base
Bucket
p470
(dp471
g5
F1175.0
sg6
(F147.12818245932556
F138.5262567220291
F30.337028284699553
tp472
sg8
F0.081079216119238198
sg9
g10
(g11
g12
Ntp473
Rp474
(dp475
g16
F56.843327747745874
sg17
g18
sg19
F-9.3297766579976678
sg20
F54.572112356462569
sg21
(lp476
g23
ag17
asg23
g24
sbsba(icolor_base
Bucket
p477
(dp478
g5
F1084.0
sg6
(F18.80920951145626
F31.284946934100407
F42.668825346195618
tp479
sg8
F0.0747998895942589
sg9
g10
(g11
g12
Ntp480
Rp481
(dp482
g16
F11.22490991834152
sg17
g18
sg19
F-1.1009508105589705
sg20
F-9.6918485448782175
sg21
(lp483
g23
ag17
asg23
g24
sbsba(icolor_base
Bucket
p484
(dp485
g5
F1060.0
sg6
(F254.33950511954311
F254.32342661717851
F40.713957747526791
tp486
sg8
F0.07314380347778085
sg9
g10
(g11
g12
Ntp487
Rp488
(dp489
g16
F96.867661795877652
sg17
g18
sg19
F-20.964730886634531
sg20
F89.419624310604931
sg21
(lp490
g23
ag17
asg23
g24
sbsba(icolor_base
Bucket
p491
(dp492
g5
F1000.0
sg6
(F149.66049146780722
F221.45648108292062
F226.03703911164052
tp493
sg8
F0.069003588186585696
sg9
g10
(g11
g12
Ntp494
Rp495
(dp496
g16
F83.801752552104645
sg17
g18
sg19
F-20.82722245375157
sg20
F-9.5133495057270867
sg21
(lp497
g23
ag17
asg23
g24
sbsba(icolor_base
Bucket
p498
(dp499
g5
F676.0
sg6
(F98.433215673705362
F94.005646104854506
F25.039453048348534
tp500
sg8
F0.046646425614131938
sg9
g10
(g11
g12
Ntp501
Rp502
(dp503
g16
F39.023248887875404
sg17
g18
sg19
F-7.4703631489763112
sg20
F38.066760199964264
sg21
(lp504
g23
ag17
asg23
g24
sbsba(icolor_base
Bucket
p505
(dp506
g5
F474.0
sg6
(F55.888316231652269
F62.325414487254811
F34.631898133313889
tp507
sg8
F0.032707700800441622
sg9
g10
(g11
g12
Ntp508
Rp509
(dp510
g16
F24.974818506032911
sg17
g18
sg19
F-7.8210946887388166
sg20
F15.778951768900107
sg21
(lp511
g23
ag17
asg23
g24
sbsba(icolor_base
Bucket
p512
(dp513
g5
F112.0
sg6
(F96.370742911618507
F162.39497226224472
F186.12150839269395
tp514
sg8
F0.007728401876897599
sg9
g10
(g11
g12
Ntp515
Rp516
(dp517
g16
F63.236171651219536
sg17
g18
sg19
F-14.462512864234334
sg20
F-18.912276531372729
sg21
(lp518
g23
ag17
asg23
g24
sbsba(icolor_base
Bucket
p519
(dp520
g5
F111.0
sg6
(F173.0429954673661
F218.4513365095047
F179.18770497371784
tp521
sg8
F0.007659398288711013
sg9
g10
(g11
g12
Ntp522
Rp523
(dp524
g16
F83.06234437032299
sg17
g18
sg19
F-22.186181278392503
sg20
F14.457194201010527
sg21
(lp525
g23
ag17
asg23
g24
sbsba(icolor_base
Bucket
p526
(dp527
g5
F103.0
sg6
(F61.939075197876505
F113.79813135445683
F140.4440793348146
tp528
sg8
F0.0071073695832183275
sg9
g10
(g11
g12
Ntp529
Rp530
(dp531
g16
F45.567554050399643
sg17
g18
sg19
F-9.5154602620673998
sg20
F-19.537229165839463
sg21
(lp532
g23
ag17
asg23
g24
sbsba(icolor_base
Bucket
p533
(dp534
g5
F92.0
sg6
(F35.562102262336467
F73.674494402291188
F98.877713233279891
tp535
sg8
F0.0063483301131658848
sg9
g10
(g11
g12
Ntp536
Rp537
(dp538
g16
F29.845073942503369
sg17
g18
sg19
F-5.0619188457157458
sg20
F-18.69905362393478
sg21
(lp539
g23
ag17
asg23
g24
sbsba(icolor_base
Bucket
p540
(dp541
g5
F78.0
sg6
(F195.57610475330759
F213.38959199555208
F121.39862947033598
tp542
sg8
F0.0053822798785536849
sg9
g10
(g11
g12
Ntp543
Rp544
(dp545
g16
F82.219767856499033
sg17
g18
sg19
F-19.707856698996164
sg20
F43.429480063597993
sg21
(lp546
g23
ag17
asg23
g24
sbsbatp547
a(S'photos/Heineken.png'
p548
(lp549
(icolor_base
Bucket
p550
(dp551
g5
F6380.0
sg6
(F22.534299756529862
F75.894730219225039
F50.435359297233099
tp552
sg8
F0.44039483675018981
sg9
g10
(g11
g12
Ntp553
Rp554
(dp555
g16
F28.329831626284331
sg17
g18
sg19
F-24.520596763537821
sg20
F10.449837330851786
sg21
(lp556
g23
ag17
asg23
g24
sbsba(icolor_base
Bucket
p557
(dp558
g5
F4881.0
sg6
(F230.04985647772679
F229.26463494162303
F223.92975976526037
tp559
sg8
F0.33692275833505902
sg9
g10
(g11
g12
Ntp560
Rp561
(dp562
g16
F90.890904046381948
sg17
g18
sg19
F-0.54489998524548389
sg20
F2.5431246256935713
sg21
(lp563
g23
ag17
asg23
g24
sbsba(icolor_base
Bucket
p564
(dp565
g5
F1034.0
sg6
(F250.6478008521149
F47.261401912913485
F45.85723643784047
tp566
sg8
F0.071374335611237655
sg9
g10
(g11
g12
Ntp567
Rp568
(dp569
g16
F54.808453758156375
sg17
g18
sg19
F73.487704237353128
sg20
F51.429276310861717
sg21
(lp570
g23
ag17
asg23
g24
sbsba(icolor_base
Bucket
p571
(dp572
g5
F893.0
sg6
(F75.802888518551796
F115.91516653742337
F96.092672341090193
tp573
sg8
F0.061641471664250706
sg9
g10
(g11
g12
Ntp574
Rp575
(dp576
g16
F45.457434339056917
sg17
g18
sg19
F-18.780229318651976
sg20
F6.6306834026684029
sg21
(lp577
g23
ag17
asg23
g24
sbsba(icolor_base
Bucket
p578
(dp579
g5
F785.0
sg6
(F151.1918008774677
F166.42956917591027
F150.30864551136369
tp580
sg8
F0.054186512045281979
sg9
g10
(g11
g12
Ntp581
Rp582
(dp583
g16
F66.560741381394521
sg17
g18
sg19
F-8.3831340668253382
sg20
F6.4860068568201479
sg21
(lp584
g23
ag17
asg23
g24
sbsba(icolor_base
Bucket
p585
(dp586
g5
F205.0
sg6
(F143.7494702625682
F133.7297118893816
F121.42168342428958
tp587
sg8
F0.014150617795264719
sg9
g10
(g11
g12
Ntp588
Rp589
(dp590
g16
F56.446691511543889
sg17
g18
sg19
F1.4484240465710285
sg20
F8.3484383248864305
sg21
(lp591
g23
ag17
asg23
g24
sbsba(icolor_base
Bucket
p592
(dp593
g5
F102.0
sg6
(F247.21227003634516
F194.90709840749193
F189.72445323198554
tp594
sg8
F0.0070407951956926902
sg9
g10
(g11
g12
Ntp595
Rp596
(dp597
g16
F83.191430859517936
sg17
g18
sg19
F17.807271130588887
sg20
F9.6023209318074176
sg21
(lp598
g23
ag17
asg23
g24
sbsba(icolor_base
Bucket
p599
(dp600
g5
F83.0
sg6
(F186.19094066684423
F169.31227757167193
F158.39291800311005
tp601
sg8
F0.005729274521985228
sg9
g10
(g11
g12
Ntp602
Rp603
(dp604
g16
F70.374614900880957
sg17
g18
sg19
F4.2799745064416861
sg20
F7.8940771059838433
sg21
(lp605
g23
ag17
asg23
g24
sbsbatp606
a(S'photos/Josephs_Brau_Dunkelweizen.png'
p607
(lp608
(icolor_base
Bucket
p609
(dp610
g5
F8379.0
sg6
(F181.95484602697155
F120.08511834495893
F183.7918295837963
tp611
sg8
F0.57842054397349163
sg9
g10
(g11
g12
Ntp612
Rp613
(dp614
g16
F58.825803739884122
sg17
g18
sg19
F34.688238992433732
sg20
F-23.940934510282652
sg21
(lp615
g23
ag17
asg23
g24
sbsba(icolor_base
Bucket
p616
(dp617
g5
F2010.0
sg6
(F207.60482734477731
F227.43323544102543
F156.66616780411087
tp618
sg8
F0.13875465967140688
sg9
g10
(g11
g12
Ntp619
Rp620
(dp621
g16
F87.379087007809133
sg17
g18
sg19
F-17.718175866615006
sg20
F32.166992739522236
sg21
(lp622
g23
ag17
asg23
g24
sbsba(icolor_base
Bucket
p623
(dp624
g5
F1894.0
sg6
(F22.936005253276615
F27.783878946181328
F41.022425788986233
tp625
sg8
F0.1307469280684799
sg9
g10
(g11
g12
Ntp626
Rp627
(dp628
g16
F10.354646346078649
sg17
g18
sg19
F1.8093753463212932
sg20
F-9.5451746288771684
sg21
(lp629
g23
ag17
asg23
g24
sbsba(icolor_base
Bucket
p630
(dp631
g5
F755.0
sg6
(F137.47559493600173
F84.66476295535054
F128.42725381682035
tp632
sg8
F0.052119287588016018
sg9
g10
(g11
g12
Ntp633
Rp634
(dp635
g16
F43.322316444660785
sg17
g18
sg19
F28.536799895693466
sg20
F-15.226350922026533
sg21
(lp636
g23
ag17
asg23
g24
sbsba(icolor_base
Bucket
p637
(dp638
g5
F511.0
sg6
(F64.729517772507805
F51.090245554609311
F77.301265313776241
tp639
sg8
F0.035275438354273089
sg9
g10
(g11
g12
Ntp640
Rp641
(dp642
g16
F23.76162927307427
sg17
g18
sg19
F12.177299861766134
sg20
F-13.612806888798589
sg21
(lp643
g23
ag17
asg23
g24
sbsba(icolor_base
Bucket
p644
(dp645
g5
F465.0
sg6
(F211.87327614751646
F167.59457953411447
F223.94433093085351
tp646
sg8
F0.032099958580698605
sg9
g10
(g11
g12
Ntp647
Rp648
(dp649
g16
F74.435425915603005
sg17
g18
sg19
F25.852854377477421
sg20
F-22.098046480228017
sg21
(lp650
g23
ag17
asg23
g24
sbsba(icolor_base
Bucket
p651
(dp652
g5
F176.0
sg6
(F100.70859135667692
F94.589716549249204
F119.61632683061684
tp653
sg8
F0.012149661742371946
sg9
g10
(g11
g12
Ntp654
Rp655
(dp656
g16
F41.700198563626323
sg17
g18
sg19
F7.9035500257898237
sg20
F-13.187032053004256
sg21
(lp657
g23
ag17
asg23
g24
sbsbatp658
a(S'photos/Kona_Fire_Rock.png'
p659
(lp660
(icolor_base
Bucket
p661
(dp662
g5
F4522.0
sg6
(F216.45980708329395
F170.21210942811538
F43.117236614181216
tp663
sg8
F0.6313878804803128
sg9
g10
(g11
g12
Ntp664
Rp665
(dp666
g16
F71.909805616291806
sg17
g18
sg19
F5.3028712940318972
sg20
F66.377884277946805
sg21
(lp667
g23
ag17
asg23
g24
sbsba(icolor_base
Bucket
p668
(dp669
g5
F1956.0
sg6
(F66.805066542933034
F51.897035458666174
F26.239175639949615
tp670
sg8
F0.27310807037140461
sg9
g10
(g11
g12
Ntp671
Rp672
(dp673
g16
F22.737208057007265
sg17
g18
sg19
F2.9303451939897696
sg20
F18.847789082421983
sg21
(lp674
g23
ag17
asg23
g24
sbsba(icolor_base
Bucket
p675
(dp676
g5
F556.0
sg6
(F139.82545778286541
F101.54258356168702
F33.411208343246102
tp677
sg8
F0.077631946383691711
sg9
g10
(g11
g12
Ntp678
Rp679
(dp680
g16
F45.891825393992875
sg17
g18
sg19
F8.3868317596951787
sg20
F42.900170082751011
sg21
(lp681
g23
ag17
asg23
g24
sbsba(icolor_base
Bucket
p682
(dp683
g5
F97.0
sg6
(F249.66306564305475
F234.73852367529256
F179.47548428772134
tp684
sg8
F0.013543702876291539
sg9
g10
(g11
g12
Ntp685
Rp686
(dp687
g16
F93.012924648188701
sg17
g18
sg19
F-3.233637629310282
sg20
F29.064175781245048
sg21
(lp688
g23
ag17
asg23
g24
sbsba(icolor_base
Bucket
p689
(dp690
g5
F17.0
sg6
(F161.94117647058823
F145.17647058823528
F44.882352941176464
tp691
sg8
F0.0023736386484222286
sg9
g10
(g11
g12
Ntp692
Rp693
(dp694
g16
F59.999192602184536
sg17
g18
sg19
F-5.1038913380843098
sg20
F52.598038785112102
sg21
(lp695
g23
ag17
asg23
g24
sbsbatp696
a(S'photos/Kona_Longboard.png'
p697
(lp698
(icolor_base
Bucket
p699
(dp700
g5
F4295.0
sg6
(F216.92790790511518
F61.973134021290527
F49.977505492539748
tp701
sg8
F0.60027952480782665
sg9
g10
(g11
g12
Ntp702
Rp703
(dp704
g16
F50.014613682187814
sg17
g18
sg19
F59.313416582276403
sg20
F42.45177632036927
sg21
(lp705
g23
ag17
asg23
g24
sbsba(icolor_base
Bucket
p706
(dp707
g5
F2014.0
sg6
(F215.87790918276391
F201.15247656009814
F184.31499664697327
tp708
sg8
F0.2814814814814815
sg9
g10
(g11
g12
Ntp709
Rp710
(dp711
g16
F81.747665997462363
sg17
g18
sg19
F2.4208150999349698
sg20
F10.371229492411249
sg21
(lp712
g23
ag17
asg23
g24
sbsba(icolor_base
Bucket
p713
(dp714
g5
F739.0
sg6
(F225.8843069560626
F153.47292532177653
F137.09938098733477
tp715
sg8
F0.10328441649196367
sg9
g10
(g11
g12
Ntp716
Rp717
(dp718
g16
F70.007389104097811
sg17
g18
sg19
F25.424320678866465
sg20
F19.545145167650023
sg21
(lp719
g23
ag17
asg23
g24
sbsba(icolor_base
Bucket
p720
(dp721
g5
I93
sg6
(F146.0
F32.0
F21.0
tp722
sg8
F0.0129979035639413
sg9
g10
(g11
g12
Ntp723
Rp724
(dp725
g16
F32.257268004731458
sg17
g18
sg19
F46.308287603480103
sg20
F35.898992183128357
sg21
(lp726
g23
ag17
asg23
g24
sbsba(icolor_base
Bucket
p727
(dp728
g5
I6
sg6
(F209.0
F123.0
F88.0
tp729
sg8
F0.00083857442348008382
sg9
g10
(g11
g12
Ntp730
Rp731
(dp732
g16
F60.273819113673014
sg17
g18
sg19
F30.091913682181946
sg20
F33.357299545785246
sg21
(lp733
g23
ag17
asg23
g24
sbsbatp734
a(S'photos/Long_Hammer_IPA.png'
p735
(lp736
(icolor_base
Bucket
p737
(dp738
g5
F4144.0
sg6
(F32.062678058438998
F40.439237103865217
F102.83763457853793
tp739
sg8
F0.5784477945281965
sg9
g10
(g11
g12
Ntp740
Rp741
(dp742
g16
F19.240061559791457
sg17
g18
sg19
F19.104665730947545
sg20
F-38.155975179039238
sg21
(lp743
g23
ag17
asg23
g24
sbsba(icolor_base
Bucket
p744
(dp745
g5
F982.0
sg6
(F221.12306187486999
F224.43880150070166
F225.40484635970387
tp746
sg8
F0.13707426018983809
sg9
g10
(g11
g12
Ntp747
Rp748
(dp749
g16
F88.978949830437969
sg17
g18
sg19
F-0.82769829399720329
sg20
F-0.84967169151639599
sg21
(lp750
g23
ag17
asg23
g24
sbsba(icolor_base
Bucket
p751
(dp752
g5
F926.0
sg6
(F142.09364691060355
F193.33523476677365
F64.592475551100321
tp753
sg8
F0.12925739810161921
sg9
g10
(g11
g12
Ntp754
Rp755
(dp756
g16
F72.409637846074673
sg17
g18
sg19
F-36.241947532704046
sg20
F56.799249754449299
sg21
(lp757
g23
ag17
asg23
g24
sbsba(icolor_base
Bucket
p758
(dp759
g5
F197.0
sg6
(F98.852130786221124
F140.76981526400274
F66.423053017091561
tp760
sg8
F0.027498604131769962
sg9
g10
(g11
g12
Ntp761
Rp762
(dp763
g16
F54.127921666212359
sg17
g18
sg19
F-28.206533149187919
sg20
F35.119100769573365
sg21
(lp764
g23
ag17
asg23
g24
sbsba(icolor_base
Bucket
p765
(dp766
g5
F187.0
sg6
(F72.375286073864316
F99.660829806885431
F61.225984722408867
tp767
sg8
F0.026102735901730876
sg9
g10
(g11
g12
Ntp768
Rp769
(dp770
g16
F39.290519177284921
sg17
g18
sg19
F-18.546064196606345
sg20
F18.886370649195594
sg21
(lp771
g23
ag17
asg23
g24
sbsba(icolor_base
Bucket
p772
(dp773
g5
F181.0
sg6
(F44.866251621547633
F65.432768563256928
F57.568517013661378
tp774
sg8
F0.025265214963707427
sg9
g10
(g11
g12
Ntp775
Rp776
(dp777
g16
F25.694959772860415
sg17
g18
sg19
F-9.7154365599034502
sg20
F1.7188490045430549
sg21
(lp778
g23
ag17
asg23
g24
sbsba(icolor_base
Bucket
p779
(dp780
g5
F149.0
sg6
(F203.93933242405168
F207.50403541406732
F164.5304814727138
tp781
sg8
F0.020798436627582358
sg9
g10
(g11
g12
Ntp782
Rp783
(dp784
g16
F82.198817495984585
sg17
g18
sg19
F-8.5219508810209792
sg20
F20.945664059264502
sg21
(lp785
g23
ag17
asg23
g24
sbsbatp786
a(S'photos/Lost_Coast_Downtown_Brown.png'
p787
(lp788
(icolor_base
Bucket
p789
(dp790
g5
F4866.0
sg6
(F223.46000667908925
F175.66171597231889
F94.509481505617288
tp791
sg8
F0.68017892088342191
sg9
g10
(g11
g12
Ntp792
Rp793
(dp794
g16
F74.551005267574936
sg17
g18
sg19
F7.9290901922519641
sg20
F47.428412109474195
sg21
(lp795
g23
ag17
asg23
g24
sbsba(icolor_base
Bucket
p796
(dp797
g5
F1044.0
sg6
(F158.61923382350278
F118.36141839288526
F63.6151864285901
tp798
sg8
F0.1459323455409561
sg9
g10
(g11
g12
Ntp799
Rp800
(dp801
g16
F52.618557082563584
sg17
g18
sg19
F9.8338992636892719
sg20
F35.592341600318193
sg21
(lp802
g23
ag17
asg23
g24
sbsba(icolor_base
Bucket
p803
(dp804
g5
F554.0
sg6
(F199.02867779719153
F195.26589123351005
F182.31720900805348
tp805
sg8
F0.077439194856024601
sg9
g10
(g11
g12
Ntp806
Rp807
(dp808
g16
F78.781330041883237
sg17
g18
sg19
F-0.88908434907980505
sg20
F7.0162132017323575
sg21
(lp809
g23
ag17
asg23
g24
sbsba(icolor_base
Bucket
p810
(dp811
g5
F492.0
sg6
(F104.47329228604745
F71.448050942070466
F34.856919847688438
tp812
sg8
F0.06877271456527817
sg9
g10
(g11
g12
Ntp813
Rp814
(dp815
g16
F33.073772499399617
sg17
g18
sg19
F9.9969656496089456
sg20
F26.898550457524816
sg21
(lp816
g23
ag17
asg23
g24
sbsba(icolor_base
Bucket
p817
(dp818
g5
F75.0
sg6
(F162.06482038332643
F156.90490162031784
F160.04599391655927
tp819
sg8
F0.010483645512999721
sg9
g10
(g11
g12
Ntp820
Rp821
(dp822
g16
F65.226419106298096
sg17
g18
sg19
F2.3741329654674015
sg20
F-0.92433976816150842
sg21
(lp823
g23
ag17
asg23
g24
sbsba(icolor_base
Bucket
p824
(dp825
g5
F45.0
sg6
(F113.95008888417981
F100.79719146594149
F60.413778372301103
tp826
sg8
F0.0062901873077998325
sg9
g10
(g11
g12
Ntp827
Rp828
(dp829
g16
F43.079976715192053
sg17
g18
sg19
F-1.0064520457944148
sg20
F25.037774344621123
sg21
(lp830
g23
ag17
asg23
g24
sbsbatp831
a(S'photos/Mad_River_Serious_Madness_Black_Ale.png'
p832
(lp833
(icolor_base
Bucket
p834
(dp835
g5
F4340.0
sg6
(F194.04273547224574
F176.09684912609188
F152.01540812779751
tp836
sg8
F0.60648406931246501
sg9
g10
(g11
g12
Ntp837
Rp838
(dp839
g16
F72.751913397729169
sg17
g18
sg19
F2.590927753135075
sg20
F14.646582008833576
sg21
(lp840
g23
ag17
asg23
g24
sbsba(icolor_base
Bucket
p841
(dp842
g5
F1593.0
sg6
(F128.52955632553929
F108.87665480794666
F90.413953703325774
tp843
sg8
F0.22261039686975964
sg9
g10
(g11
g12
Ntp844
Rp845
(dp846
g16
F47.421355505352643
sg17
g18
sg19
F4.8053193357583401
sg20
F13.551999809805649
sg21
(lp847
g23
ag17
asg23
g24
sbsba(icolor_base
Bucket
p848
(dp849
g5
F631.0
sg6
(F84.070902588755629
F68.994415858684306
F55.710407466606007
tp850
sg8
F0.08817775293460034
sg9
g10
(g11
g12
Ntp851
Rp852
(dp853
g16
F30.464616017129416
sg17
g18
sg19
F4.1702560331108582
sg20
F10.256583250593943
sg21
(lp854
g23
ag17
asg23
g24
sbsba(icolor_base
Bucket
p855
(dp856
g5
F319.0
sg6
(F233.93780971075108
F227.26153619248396
F216.97726832352288
tp857
sg8
F0.044577976523197317
sg9
g10
(g11
g12
Ntp858
Rp859
(dp860
g16
F90.524083110266091
sg17
g18
sg19
F0.66013543428827814
sg20
F5.7117339779424459
sg21
(lp861
g23
ag17
asg23
g24
sbsba(icolor_base
Bucket
p862
(dp863
g5
F224.0
sg6
(F95.429247764164742
F96.662033719944503
F74.830509197282623
tp864
sg8
F0.031302403577417551
sg9
g10
(g11
g12
Ntp865
Rp866
(dp867
g16
F40.39432282343423
sg17
g18
sg19
F-4.97884841881302
sg20
F12.316736084806191
sg21
(lp868
g23
ag17
asg23
g24
sbsbatp869
a(S'photos/New_Belgium_Mighty_Arrow.png'
p870
(lp871
(icolor_base
Bucket
p872
(dp873
g5
F4435.0
sg6
(F245.69938462082467
F96.705902941169001
F72.859402365995749
tp874
sg8
F0.61993290466871676
sg9
g10
(g11
g12
Ntp875
Rp876
(dp877
g16
F60.45174790392791
sg17
g18
sg19
F55.741330695880109
sg20
F42.986896224380743
sg21
(lp878
g23
ag17
asg23
g24
sbsba(icolor_base
Bucket
p879
(dp880
g5
F2252.0
sg6
(F253.20392537821817
F149.01127284646765
F71.838158374241161
tp881
sg8
F0.31478892927033825
sg9
g10
(g11
g12
Ntp882
Rp883
(dp884
g16
F71.452747151001006
sg17
g18
sg19
F33.102678289271381
sg20
F55.858844488730256
sg21
(lp885
g23
ag17
asg23
g24
sbsba(icolor_base
Bucket
p886
(dp887
g5
F327.0
sg6
(F244.73213629212145
F213.85626561907097
F193.50993174478882
tp888
sg8
F0.045708694436678785
sg9
g10
(g11
g12
Ntp889
Rp890
(dp891
g16
F87.680030951154635
sg17
g18
sg19
F7.7102491300612419
sg20
F13.83491367158669
sg21
(lp892
g23
ag17
asg23
g24
sbsba(icolor_base
Bucket
p893
(dp894
g5
F139.0
sg6
(F241.17540634070488
F159.22563295383401
F143.6815809096866
tp895
sg8
F0.019429689684092814
sg9
g10
(g11
g12
Ntp896
Rp897
(dp898
g16
F73.22888551278956
sg17
g18
sg19
F28.761215833943865
sg20
F20.401242780530215
sg21
(lp899
g23
ag17
asg23
g24
sbsbatp900
a(S'photos/North_Coast_Old_Stock_Ale.png'
p901
(lp902
(icolor_base
Bucket
p903
(dp904
g5
F3521.0
sg6
(F47.887183971012547
F39.739937497195015
F29.29214329833983
tp905
sg8
F0.49148520379676158
sg9
g10
(g11
g12
Ntp906
Rp907
(dp908
g16
F16.673797689503488
sg17
g18
sg19
F1.6476954715844983
sg20
F8.6269664712525724
sg21
(lp909
g23
ag17
asg23
g24
sbsba(icolor_base
Bucket
p910
(dp911
g5
F1577.0
sg6
(F220.7033698520799
F182.36996821069548
F116.82297484613807
tp912
sg8
F0.22012841987716358
sg9
g10
(g11
g12
Ntp913
Rp914
(dp915
g16
F76.139322577497936
sg17
g18
sg19
F5.8221100061591757
sg20
F38.248245358456501
sg21
(lp916
g23
ag17
asg23
g24
sbsba(icolor_base
Bucket
p917
(dp918
g5
F1134.0
sg6
(F104.49852469085231
F76.180363921037042
F51.684911101218745
tp919
sg8
F0.15829145728643215
sg9
g10
(g11
g12
Ntp920
Rp921
(dp922
g16
F34.72225056365253
sg17
g18
sg19
F8.5317336306415807
sg20
F18.857173702221775
sg21
(lp923
g23
ag17
asg23
g24
sbsba(icolor_base
Bucket
p924
(dp925
g5
F690.0
sg6
(F160.51653982740655
F125.5929601408081
F81.517410231971624
tp926
sg8
F0.096314907872696823
sg9
g10
(g11
g12
Ntp927
Rp928
(dp929
g16
F55.18440416526316
sg17
g18
sg19
F7.7977160920288391
sg20
F29.035555252376721
sg21
(lp930
g23
ag17
asg23
g24
sbsbatp931
a(S'photos/North_Coast_Pranqster.png'
p932
(lp933
(icolor_base
Bucket
p934
(dp935
g5
F4404.0
sg6
(F55.051191488064056
F47.685423412741557
F36.516982406088324
tp936
sg8
F0.6149120357442055
sg9
g10
(g11
g12
Ntp937
Rp938
(dp939
g16
F20.281674503505613
sg17
g18
sg19
F1.0359507756961817
sg20
F8.2095008735378556
sg21
(lp940
g23
ag17
asg23
g24
sbsba(icolor_base
Bucket
p941
(dp942
g5
F1462.0
sg6
(F226.20884091896866
F179.09975911707252
F108.02432448822393
tp943
sg8
F0.20413292376431164
sg9
g10
(g11
g12
Ntp944
Rp945
(dp946
g16
F75.757509383799743
sg17
g18
sg19
F8.6347472999646619
sg20
F42.472995377329603
sg21
(lp947
g23
ag17
asg23
g24
sbsba(icolor_base
Bucket
p948
(dp949
g5
F679.0
sg6
(F127.62139968524627
F90.002005529886574
F55.871087853136601
tp950
sg8
F0.094805920134040766
sg9
g10
(g11
g12
Ntp951
Rp952
(dp953
g16
F41.513005536583186
sg17
g18
sg19
F11.500173157613952
sg20
F25.703903650977622
sg21
(lp954
g23
ag17
asg23
g24
sbsba(icolor_base
Bucket
p955
(dp956
g5
F185.0
sg6
(F173.71969941972338
F124.93393522216196
F75.382271214311913
tp957
sg8
F0.025830773526947778
sg9
g10
(g11
g12
Ntp958
Rp959
(dp960
g16
F56.262891687856609
sg17
g18
sg19
F13.344384753590289
sg20
F34.506482618677857
sg21
(lp961
g23
ag17
asg23
g24
sbsba(icolor_base
Bucket
p962
(dp963
g5
F135.0
sg6
(F111.69239501949014
F102.59791554889419
F89.435609160220594
tp964
sg8
F0.018849483384529461
sg9
g10
(g11
g12
Ntp965
Rp966
(dp967
g16
F44.04115800005534
sg17
g18
sg19
F1.0129741213238397
sg20
F9.1873832117287275
sg21
(lp968
g23
ag17
asg23
g24
sbsbatp969
a(S'photos/North_Coast_Scrimshaw_Pilsner.png'
p970
(lp971
(icolor_base
Bucket
p972
(dp973
g5
F8379.0
sg6
(F221.70846449306461
F226.77588718485572
F229.66423284187044
tp974
sg8
F0.5781810654154016
sg9
g10
(g11
g12
Ntp975
Rp976
(dp977
g16
F89.943155008852671
sg17
g18
sg19
F-1.1252107878857998
sg20
F-2.0531575237967115
sg21
(lp978
g23
ag17
asg23
g24
sbsba(icolor_base
Bucket
p979
(dp980
g5
F2547.0
sg6
(F32.837037015923123
F27.198469648252381
F29.284788812376487
tp981
sg8
F0.17575213911123377
sg9
g10
(g11
g12
Ntp982
Rp983
(dp984
g16
F10.527303175330346
sg17
g18
sg19
F3.391547814040663
sg20
F-0.29820746552987609
sg21
(lp985
g23
ag17
asg23
g24
sbsba(icolor_base
Bucket
p986
(dp987
g5
F1368.0
sg6
(F158.56118268727982
F151.07368941950065
F153.17027243841326
tp988
sg8
F0.094396908639249238
sg9
g10
(g11
g12
Ntp989
Rp990
(dp991
g16
F63.180756526219696
sg17
g18
sg19
F3.2968888938296192
sg20
F-0.0073529388318727129
sg21
(lp992
g23
ag17
asg23
g24
sbsba(icolor_base
Bucket
p993
(dp994
g5
F1192.0
sg6
(F115.78193346214536
F103.80342093063261
F101.69309490149084
tp995
sg8
F0.082252277118410155
sg9
g10
(g11
g12
Ntp996
Rp997
(dp998
g16
F45.043923929724443
sg17
g18
sg19
F4.3558293914364166
sg20
F2.8434635223016258
sg21
(lp999
g23
ag17
asg23
g24
sbsba(icolor_base
Bucket
p1000
(dp1001
g5
F653.0
sg6
(F215.67444814729149
F190.89692507342082
F188.53167769582336
tp1002
sg8
F0.045059343085840461
sg9
g10
(g11
g12
Ntp1003
Rp1004
(dp1005
g16
F79.348770023986432
sg17
g18
sg19
F8.5138046907565208
sg20
F4.2456578335855033
sg21
(lp1006
g23
ag17
asg23
g24
sbsba(icolor_base
Bucket
p1007
(dp1008
g5
F136.0
sg6
(F65.795835160628855
F70.823426666440724
F68.801284969538813
tp1009
sg8
F0.0093844879933756547
sg9
g10
(g11
g12
Ntp1010
Rp1011
(dp1012
g16
F29.649272282948317
sg17
g18
sg19
F-2.5062174970026385
sg20
F0.48991691807832582
sg21
(lp1013
g23
ag17
asg23
g24
sbsba(icolor_base
Bucket
p1014
(dp1015
g5
F94.0
sg6
(F78.859751580505062
F60.833358036360544
F62.590773659110724
tp1016
sg8
F0.0064863372895390559
sg9
g10
(g11
g12
Ntp1017
Rp1018
(dp1019
g16
F27.733468895888286
sg17
g18
sg19
F8.2329418942876931
sg20
F1.7781068823993218
sg21
(lp1020
g23
ag17
asg23
g24
sbsbatp1021
a(S'photos/Petes_Wicked_Ale.png'
p1022
(lp1023
(icolor_base
Bucket
p1024
(dp1025
g5
F2781.0
sg6
(F51.698774024520809
F38.309426077281898
F29.622195157011454
tp1026
sg8
F0.38802846379238176
sg9
g10
(g11
g12
Ntp1027
Rp1028
(dp1029
g16
F16.553421126836739
sg17
g18
sg19
F5.2137796829017926
sg20
F7.8499268353396321
sg21
(lp1030
g23
ag17
asg23
g24
sbsba(icolor_base
Bucket
p1031
(dp1032
g5
F1989.0
sg6
(F214.52023585847226
F73.103228357010636
F58.745918341458626
tp1033
sg8
F0.27752197572205944
sg9
g10
(g11
g12
Ntp1034
Rp1035
(dp1036
g16
F51.303198411535959
sg17
g18
sg19
F54.80359683323033
sg20
F38.829749459678112
sg21
(lp1037
g23
ag17
asg23
g24
sbsba(icolor_base
Bucket
p1038
(dp1039
g5
F942.0
sg6
(F234.86495830316721
F195.46416176421184
F131.31485273419025
tp1040
sg8
F0.13143574717455003
sg9
g10
(g11
g12
Ntp1041
Rp1042
(dp1043
g16
F80.923635331369212
sg17
g18
sg19
F6.0138035819509161
sg20
F37.428486733680998
sg21
(lp1044
g23
ag17
asg23
g24
sbsba(icolor_base
Bucket
p1045
(dp1046
g5
F721.0
sg6
(F116.02282137615471
F43.166667752307973
F34.659155768813086
tp1047
sg8
F0.1005999720943212
sg9
g10
(g11
g12
Ntp1048
Rp1049
(dp1050
g16
F28.281937684277572
sg17
g18
sg19
F31.579699249250829
sg20
F21.685430987288111
sg21
(lp1051
g23
ag17
asg23
g24
sbsba(icolor_base
Bucket
p1052
(dp1053
g5
F306.0
sg6
(F231.02801385714872
F147.38576230632532
F105.06011413894147
tp1054
sg8
F0.042695688572624527
sg9
g10
(g11
g12
Ntp1055
Rp1056
(dp1057
g16
F68.663764118943234
sg17
g18
sg19
F27.460679610671168
sg20
F35.301213889427061
sg21
(lp1058
g23
ag17
asg23
g24
sbsba(icolor_base
Bucket
p1059
(dp1060
g5
F199.0
sg6
(F172.99484309725335
F137.05470493905804
F87.046420254975416
tp1061
sg8
F0.027766150411608761
sg9
g10
(g11
g12
Ntp1062
Rp1063
(dp1064
g16
F59.402131674746641
sg17
g18
sg19
F7.2856386968255809
sg20
F31.906743397175642
sg21
(lp1065
g23
ag17
asg23
g24
sbsba(icolor_base
Bucket
p1066
(dp1067
g5
F161.0
sg6
(F113.73179089789403
F84.977539596698236
F53.834907619034567
tp1068
sg8
F0.022464071438537743
sg9
g10
(g11
g12
Ntp1069
Rp1070
(dp1071
g16
F38.448061290970216
sg17
g18
sg19
F7.8884087346127449
sg20
F22.668115671507316
sg21
(lp1072
g23
ag17
asg23
g24
sbsbatp1073
a(S'photos/Plzensky_Prazdroj.png'
p1074
(lp1075
(icolor_base
Bucket
p1076
(dp1077
g5
F5933.0
sg6
(F79.382553306713262
F102.20324086651097
F76.70465036201233
tp1078
sg8
F0.40905956977385549
sg9
g10
(g11
g12
Ntp1079
Rp1080
(dp1081
g16
F40.736262457270321
sg17
g18
sg19
F-14.027651810752745
sg20
F11.387958600769554
sg21
(lp1082
g23
ag17
asg23
g24
sbsba(icolor_base
Bucket
p1083
(dp1084
g5
F5296.0
sg6
(F103.29266485442335
F138.67982142946852
F139.62496503736574
tp1085
sg8
F0.36514065085493658
sg9
g10
(g11
g12
Ntp1086
Rp1087
(dp1088
g16
F55.32027607002081
sg17
g18
sg19
F-12.223972125408322
sg20
F-4.6170933631451527
sg21
(lp1089
g23
ag17
asg23
g24
sbsba(icolor_base
Bucket
p1090
(dp1091
g5
F3064.0
sg6
(F130.87618633792169
F160.56196908142232
F119.10742843978342
tp1092
sg8
F0.21125206839492552
sg9
g10
(g11
g12
Ntp1093
Rp1094
(dp1095
g16
F63.049596774032025
sg17
g18
sg19
F-18.529275708428607
sg20
F18.542963793750644
sg21
(lp1096
g23
ag17
asg23
g24
sbsba(icolor_base
Bucket
p1097
(dp1098
g5
F209.0
sg6
(F120.61938808823746
F124.5385291342955
F80.208730200559643
tp1099
sg8
F0.014409817981246553
sg9
g10
(g11
g12
Ntp1100
Rp1101
(dp1102
g16
F51.049625851482702
sg17
g18
sg19
F-9.148511468892174
sg20
F24.067413373723589
sg21
(lp1103
g23
ag17
asg23
g24
sbsba(icolor_base
Bucket
p1104
(dp1105
g5
I2
sg6
(F135.0
F168.0
F167.0
tp1106
sg8
F0.00013789299503585219
sg9
g10
(g11
g12
Ntp1107
Rp1108
(dp1109
g16
F66.478136577965046
sg17
g18
sg19
F-11.454929098883015
sg20
F-3.2268278441314857
sg21
(lp1110
g23
ag17
asg23
g24
sbsbatp1111
a(S'photos/Primo_Island_Lager.png'
p1112
(lp1113
(icolor_base
Bucket
p1114
(dp1115
g5
F2884.0
sg6
(F214.61048319685119
F219.47018270970014
F221.79191059054992
tp1116
sg8
F0.40256839754327189
sg9
g10
(g11
g12
Ntp1117
Rp1118
(dp1119
g16
F87.184766904525503
sg17
g18
sg19
F-0.7981833021167839
sg20
F-1.9496449961009521
sg21
(lp1120
g23
ag17
asg23
g24
sbsba(icolor_base
Bucket
p1121
(dp1122
g5
F1673.0
sg6
(F24.975006773554679
F27.355841286434163
F25.78063308188047
tp1123
sg8
F0.23352875488553881
sg9
g10
(g11
g12
Ntp1124
Rp1125
(dp1126
g16
F9.5225071537851171
sg17
g18
sg19
F-1.2125138554156534
sg20
F0.36353562453758648
sg21
(lp1127
g23
ag17
asg23
g24
sbsba(icolor_base
Bucket
p1128
(dp1129
g5
F869.0
sg6
(F93.335209108825666
F182.55275851290347
F236.62321497311135
tp1130
sg8
F0.12130094919039643
sg9
g10
(g11
g12
Ntp1131
Rp1132
(dp1133
g16
F71.081352785384496
sg17
g18
sg19
F-11.158392493693936
sg20
F-34.981698342919529
sg21
(lp1134
g23
ag17
asg23
g24
sbsba(icolor_base
Bucket
p1135
(dp1136
g5
F388.0
sg6
(F24.192190372012497
F33.103480624029523
F68.863272402815923
tp1137
sg8
F0.054159687325516473
sg9
g10
(g11
g12
Ntp1138
Rp1139
(dp1140
g16
F13.89383087877469
sg17
g18
sg19
F9.0591934579009319
sg20
F-23.948862807522652
sg21
(lp1141
g23
ag17
asg23
g24
sbsba(icolor_base
Bucket
p1142
(dp1143
g5
F222.0
sg6
(F41.763964794331258
F81.588003520368531
F150.79409836120237
tp1144
sg8
F0.030988274706867672
sg9
g10
(g11
g12
Ntp1145
Rp1146
(dp1147
g16
F35.519067308289237
sg17
g18
sg19
F10.437905393311354
sg20
F-41.983067911480141
sg21
(lp1148
g23
ag17
asg23
g24
sbsba(icolor_base
Bucket
p1149
(dp1150
g5
F205.0
sg6
(F46.759861880346349
F132.36784868344714
F205.98266072935408
tp1151
sg8
F0.028615298715801228
sg9
g10
(g11
g12
Ntp1152
Rp1153
(dp1154
g16
F53.558514461767174
sg17
g18
sg19
F0.33140349727445173
sg20
F-45.365826805248233
sg21
(lp1155
g23
ag17
asg23
g24
sbsbatp1156
a(S'photos/Pyramid_Thunderhead_IPA.png'
p1157
(lp1158
(icolor_base
Bucket
p1159
(dp1160
g5
F4702.0
sg6
(F40.649932708674427
F38.799465818704782
F26.659510015186822
tp1161
sg8
F0.65350938151494098
sg9
g10
(g11
g12
Ntp1162
Rp1163
(dp1164
g16
F15.495690526308625
sg17
g18
sg19
F-1.5567288320733619
sg20
F8.2842991630553531
sg21
(lp1165
g23
ag17
asg23
g24
sbsba(icolor_base
Bucket
p1166
(dp1167
g5
F1616.0
sg6
(F225.62804731750776
F185.10198546908705
F67.237131809642506
tp1168
sg8
F0.2246004169562196
sg9
g10
(g11
g12
Ntp1169
Rp1170
(dp1171
g16
F76.844724754492916
sg17
g18
sg19
F2.6978129648085325
sg20
F62.647446722099552
sg21
(lp1172
g23
ag17
asg23
g24
sbsba(icolor_base
Bucket
p1173
(dp1174
g5
F448.0
sg6
(F104.17837852175228
F71.609102122919268
F25.971287829726077
tp1175
sg8
F0.062265462126476719
sg9
g10
(g11
g12
Ntp1176
Rp1177
(dp1178
g16
F33.249197219995352
sg17
g18
sg19
F8.7683687530427648
sg20
F31.951226115498155
sg21
(lp1179
g23
ag17
asg23
g24
sbsba(icolor_base
Bucket
p1180
(dp1181
g5
F333.0
sg6
(F163.48606382268059
F120.70841067807338
F42.97122663321764
tp1182
sg8
F0.0462821403752606
sg9
g10
(g11
g12
Ntp1183
Rp1184
(dp1185
g16
F53.639617028469686
sg17
g18
sg19
F8.5728935656076981
sg20
F47.121541492093989
sg21
(lp1186
g23
ag17
asg23
g24
sbsba(icolor_base
Bucket
p1187
(dp1188
g5
I69
sg6
(F250.0
F229.0
F161.0
tp1189
sg8
F0.0095899930507296737
sg9
g10
(g11
g12
Ntp1190
Rp1191
(dp1192
g16
F91.205948154005881
sg17
g18
sg19
F-2.3763617095899359
sg20
F35.795096309610706
sg21
(lp1193
g23
ag17
asg23
g24
sbsbatp1194
a(S'photos/Red_Nectar_Nectar_Ale.png'
p1195
(lp1196
(icolor_base
Bucket
p1197
(dp1198
g5
F6418.0
sg6
(F197.24768231540978
F197.34763217951809
F187.9538711963051
tp1199
sg8
F0.89686975964225824
sg9
g10
(g11
g12
Ntp1200
Rp1201
(dp1202
g16
F79.290439091574783
sg17
g18
sg19
F-1.618547601404785
sg20
F4.5018477390613265
sg21
(lp1203
g23
ag17
asg23
g24
sbsba(icolor_base
Bucket
p1204
(dp1205
g5
F231.0
sg6
(F184.19971695702452
F208.14990255241304
F156.36227010913896
tp1206
sg8
F0.032280603689211852
sg9
g10
(g11
g12
Ntp1207
Rp1208
(dp1209
g16
F80.572801237526264
sg17
g18
sg19
F-17.200337921847996
sg20
F23.214473168043813
sg21
(lp1210
g23
ag17
asg23
g24
sbsba(icolor_base
Bucket
p1211
(dp1212
g5
F168.0
sg6
(F146.45157067472215
F142.52080351683225
F135.12214142633277
tp1213
sg8
F0.023476802683063163
sg9
g10
(g11
g12
Ntp1214
Rp1215
(dp1216
g16
F59.439140922930605
sg17
g18
sg19
F-0.3902678139306448
sg20
F4.6389247179079218
sg21
(lp1217
g23
ag17
asg23
g24
sbsba(icolor_base
Bucket
p1218
(dp1219
g5
F121.0
sg6
(F43.313827170542815
F38.939428769790624
F38.83044363518465
tp1220
sg8
F0.016908887646730018
sg9
g10
(g11
g12
Ntp1221
Rp1222
(dp1223
g16
F16.059978508156568
sg17
g18
sg19
F1.8430607326116177
sg20
F0.6638057912188855
sg21
(lp1224
g23
ag17
asg23
g24
sbsba(icolor_base
Bucket
p1225
(dp1226
g5
F45.0
sg6
(F71.976992143658819
F63.787556116722776
F48.140147506814174
tp1227
sg8
F0.0062884292901062046
sg9
g10
(g11
g12
Ntp1228
Rp1229
(dp1230
g16
F27.457550948184952
sg17
g18
sg19
F0.52004589098014753
sg20
F11.060369948743709
sg21
(lp1231
g23
ag17
asg23
g24
sbsba(icolor_base
Bucket
p1232
(dp1233
g5
F45.0
sg6
(F112.94633802411582
F107.02844973956087
F91.535549224438128
tp1234
sg8
F0.0062884292901062046
sg9
g10
(g11
g12
Ntp1235
Rp1236
(dp1237
g16
F45.3576040617546
sg17
g18
sg19
F-0.4190265843299068
sg20
F9.2549822486458702
sg21
(lp1238
g23
ag17
asg23
g24
sbsbatp1239
a(S'photos/Redhook_ESB.png'
p1240
(lp1241
(icolor_base
Bucket
p1242
(dp1243
g5
F3890.0
sg6
(F219.73719445592124
F66.791953579500188
F49.312489013733163
tp1244
sg8
F0.54352382283079503
sg9
g10
(g11
g12
Ntp1245
Rp1246
(dp1247
g16
F51.215838152452491
sg17
g18
sg19
F58.395212701761068
sg20
F44.404631854319398
sg21
(lp1248
g23
ag17
asg23
g24
sbsba(icolor_base
Bucket
p1249
(dp1250
g5
F1011.0
sg6
(F213.89868125066138
F201.86088794030138
F189.45409973855331
tp1251
sg8
F0.14126030459689815
sg9
g10
(g11
g12
Ntp1252
Rp1253
(dp1254
g16
F81.953218370896806
sg17
g18
sg19
F1.97371915986988
sg20
F7.9735739268356642
sg21
(lp1255
g23
ag17
asg23
g24
sbsba(icolor_base
Bucket
p1256
(dp1257
g5
F934.0
sg6
(F228.1394316409897
F167.54840132927254
F92.593334776428804
tp1258
sg8
F0.13050160681849937
sg9
g10
(g11
g12
Ntp1259
Rp1260
(dp1261
g16
F73.083815147541955
sg17
g18
sg19
F14.118258765922764
sg20
F46.812394469323458
sg21
(lp1262
g23
ag17
asg23
g24
sbsba(icolor_base
Bucket
p1263
(dp1264
g5
F773.0
sg6
(F229.09668932060671
F123.18076444671357
F71.861340625479272
tp1265
sg8
F0.10800614782730195
sg9
g10
(g11
g12
Ntp1266
Rp1267
(dp1268
g16
F62.756106771118851
sg17
g18
sg19
F36.990510459686988
sg20
F45.446498397162692
sg21
(lp1269
g23
ag17
asg23
g24
sbsba(icolor_base
Bucket
p1270
(dp1271
g5
F281.0
sg6
(F227.14226059051342
F152.35047021530147
F151.36793182230602
tp1272
sg8
F0.039262260723766942
sg9
g10
(g11
g12
Ntp1273
Rp1274
(dp1275
g16
F70.192922523906518
sg17
g18
sg19
F28.008917349243323
sg20
F12.074926174319112
sg21
(lp1276
g23
ag17
asg23
g24
sbsba(icolor_base
Bucket
p1277
(dp1278
g5
F254.0
sg6
(F166.36965838541593
F27.755479599643031
F20.524373222570215
tp1279
sg8
F0.035489730333938804
sg9
g10
(g11
g12
Ntp1280
Rp1281
(dp1282
g16
F35.972196548959694
sg17
g18
sg19
F53.645237736394456
sg20
F40.739190449977976
sg21
(lp1283
g23
ag17
asg23
g24
sbsbatp1284
a(S'photos/RedStripe.png'
p1285
(lp1286
(icolor_base
Bucket
p1287
(dp1288
g5
F6827.0
sg6
(F212.75162574414986
F220.32523223068119
F221.49980749391625
tp1289
sg8
F0.47095750551876381
sg9
g10
(g11
g12
Ntp1290
Rp1291
(dp1292
g16
F87.267217264635633
sg17
g18
sg19
F-2.1695800089144845
sg20
F-1.3185702379897579
sg21
(lp1293
g23
ag17
asg23
g24
sbsba(icolor_base
Bucket
p1294
(dp1295
g5
F6301.0
sg6
(F249.48072897495967
F72.943402323934109
F64.080612614686444
tp1296
sg8
F0.43467163355408389
sg9
g10
(g11
g12
Ntp1297
Rp1298
(dp1299
g16
F57.347166375994618
sg17
g18
sg19
F65.822021019149688
sg20
F44.48229075147492
sg21
(lp1300
g23
ag17
asg23
g24
sbsba(icolor_base
Bucket
p1301
(dp1302
g5
F586.0
sg6
(F231.50086698263451
F179.91225182667557
F170.96902583007244
tp1303
sg8
F0.040424944812362029
sg9
g10
(g11
g12
Ntp1304
Rp1305
(dp1306
g16
F77.721603182814349
sg17
g18
sg19
F17.551469967196031
sg20
F11.838631613399176
sg21
(lp1307
g23
ag17
asg23
g24
sbsba(icolor_base
Bucket
p1308
(dp1309
g5
F160.0
sg6
(F146.44998399926419
F133.58917750289257
F127.61373833199352
tp1310
sg8
F0.011037527593818985
sg9
g10
(g11
g12
Ntp1311
Rp1312
(dp1313
g16
F56.801578208723896
sg17
g18
sg19
F3.4314156198460011
sg20
F4.8521729310881501
sg21
(lp1314
g23
ag17
asg23
g24
sbsba(icolor_base
Bucket
p1315
(dp1316
g5
F152.0
sg6
(F54.646948063065651
F52.853548927628587
F58.855361836171497
tp1317
sg8
F0.010485651214128035
sg9
g10
(g11
g12
Ntp1318
Rp1319
(dp1320
g16
F22.563717596033776
sg17
g18
sg19
F2.2804407254617134
sg20
F-3.443851729552827
sg21
(lp1321
g23
ag17
asg23
g24
sbsba(icolor_base
Bucket
p1322
(dp1323
g5
F140.0
sg6
(F101.56652448697488
F94.826540962630702
F96.693674617483964
tp1324
sg8
F0.0096578366445916122
sg9
g10
(g11
g12
Ntp1325
Rp1326
(dp1327
g16
F41.012529169207923
sg17
g18
sg19
F3.1866146751395599
sg20
F-0.14005811025947779
sg21
(lp1328
g23
ag17
asg23
g24
sbsbatp1329
a(S'photos/Rogue_Red_Ale.png'
p1330
(lp1331
(icolor_base
Bucket
p1332
(dp1333
g5
F3762.0
sg6
(F40.811705590238361
F36.634422817308881
F30.366518816266503
tp1334
sg8
F0.52512562814070352
sg9
g10
(g11
g12
Ntp1335
Rp1336
(dp1337
g16
F14.88988930125149
sg17
g18
sg19
F0.38319355296337343
sg20
F5.3420936722626706
sg21
(lp1338
g23
ag17
asg23
g24
sbsba(icolor_base
Bucket
p1339
(dp1340
g5
F1765.0
sg6
(F225.18071336694683
F219.04277033662873
F208.94977973247495
tp1341
sg8
F0.24637074260189837
sg9
g10
(g11
g12
Ntp1342
Rp1343
(dp1344
g16
F87.61813337699077
sg17
g18
sg19
F0.31922329978989472
sg20
F5.6287960227931366
sg21
(lp1345
g23
ag17
asg23
g24
sbsba(icolor_base
Bucket
p1346
(dp1347
g5
F480.0
sg6
(F224.49039198245347
F118.33289077865786
F89.606100339705833
tp1348
sg8
F0.067001675041876041
sg9
g10
(g11
g12
Ntp1349
Rp1350
(dp1351
g16
F61.260168537278133
sg17
g18
sg19
F38.735175912121001
sg20
F33.928683278346995
sg21
(lp1352
g23
ag17
asg23
g24
sbsba(icolor_base
Bucket
p1353
(dp1354
g5
F269.0
sg6
(F170.89091017559628
F162.63693283149351
F148.79198852025453
tp1355
sg8
F0.037548855388051368
sg9
g10
(g11
g12
Ntp1356
Rp1357
(dp1358
g16
F67.293943719020419
sg17
g18
sg19
F0.43106035588308389
sg20
F8.3003413256355287
sg21
(lp1359
g23
ag17
asg23
g24
sbsba(icolor_base
Bucket
p1360
(dp1361
g5
F192.0
sg6
(F105.12347578462881
F91.877020020134125
F80.6447416763381
tp1362
sg8
F0.026800670016750419
sg9
g10
(g11
g12
Ntp1363
Rp1364
(dp1365
g16
F40.00146053244702
sg17
g18
sg19
F3.2902893830764333
sg20
F8.2574628549326068
sg21
(lp1366
g23
ag17
asg23
g24
sbsbatp1367
a(S'photos/Sam_Adams_Boston_Lager.png'
p1368
(lp1369
(icolor_base
Bucket
p1370
(dp1371
g5
F3907.0
sg6
(F43.928432635717883
F48.541224930921977
F148.65081186288302
tp1372
sg8
F0.54605171208944792
sg9
g10
(g11
g12
Ntp1373
Rp1374
(dp1375
g16
F26.452576294018854
sg17
g18
sg19
F32.051229771089929
sg20
F-55.455469997722076
sg21
(lp1376
g23
ag17
asg23
g24
sbsba(icolor_base
Bucket
p1377
(dp1378
g5
F1514.0
sg6
(F214.95930608860954
F211.95585743149888
F210.63344031296052
tp1379
sg8
F0.21160027952480784
sg9
g10
(g11
g12
Ntp1380
Rp1381
(dp1382
g16
F85.117310421857923
sg17
g18
sg19
F0.84535154593234907
sg20
F0.84825466767299851
sg21
(lp1383
g23
ag17
asg23
g24
sbsba(icolor_base
Bucket
p1384
(dp1385
g5
F475.0
sg6
(F207.64319590347819
F88.540295089140869
F82.799329382626752
tp1386
sg8
F0.066387141858839968
sg9
g10
(g11
g12
Ntp1387
Rp1388
(dp1389
g16
F53.148300053999051
sg17
g18
sg19
F46.664382961528027
sg20
F27.1250194544827
sg21
(lp1390
g23
ag17
asg23
g24
sbsba(icolor_base
Bucket
p1391
(dp1392
g5
F233.0
sg6
(F171.20340311472611
F172.84658689627079
F212.17119980912767
tp1393
sg8
F0.032564640111809921
sg9
g10
(g11
g12
Ntp1394
Rp1395
(dp1396
g16
F71.756838976164616
sg17
g18
sg19
F7.4093089874558427
sg20
F-19.936219905610407
sg21
(lp1397
g23
ag17
asg23
g24
sbsba(icolor_base
Bucket
p1398
(dp1399
g5
F199.0
sg6
(F76.838325773497644
F68.989655023379171
F103.57162651547449
tp1400
sg8
F0.027812718378756113
sg9
g10
(g11
g12
Ntp1401
Rp1402
(dp1403
g16
F31.424746540311268
sg17
g18
sg19
F11.80916463922091
sg20
F-19.202387478630577
sg21
(lp1404
g23
ag17
asg23
g24
sbsba(icolor_base
Bucket
p1405
(dp1406
g5
F177.0
sg6
(F114.81661493285225
F115.24106205640402
F184.98532307712824
tp1407
sg8
F0.024737945492662474
sg9
g10
(g11
g12
Ntp1408
Rp1409
(dp1410
g16
F51.161895436091868
sg17
g18
sg19
F17.30041236303903
sg20
F-36.930151874462759
sg21
(lp1411
g23
ag17
asg23
g24
sbsbatp1412
a(S'photos/Sam_Adams_Cherry_Wheat.png'
p1413
(lp1414
(icolor_base
Bucket
p1415
(dp1416
g5
F3961.0
sg6
(F45.169851220107191
F50.620980607864922
F151.48580852203119
tp1417
sg8
F0.55290340591848131
sg9
g10
(g11
g12
Ntp1418
Rp1419
(dp1420
g16
F27.184344333273231
sg17
g18
sg19
F31.612499671755806
sg20
F-55.481324237998223
sg21
(lp1421
g23
ag17
asg23
g24
sbsba(icolor_base
Bucket
p1422
(dp1423
g5
F1536.0
sg6
(F213.328560671426
F211.34033600333407
F209.1545704245934
tp1424
sg8
F0.21440536013400335
sg9
g10
(g11
g12
Ntp1425
Rp1426
(dp1427
g16
F84.65770287780893
sg17
g18
sg19
F0.32441233027963312
sg20
F1.2213994312280985
sg21
(lp1428
g23
ag17
asg23
g24
sbsba(icolor_base
Bucket
p1429
(dp1430
g5
F467.0
sg6
(F208.49847802554675
F87.217249589859108
F82.138955430933848
tp1431
sg8
F0.065187046342825239
sg9
g10
(g11
g12
Ntp1432
Rp1433
(dp1434
g16
F52.772280891317536
sg17
g18
sg19
F47.536448454336913
sg20
F27.223757798697644
sg21
(lp1435
g23
ag17
asg23
g24
sbsba(icolor_base
Bucket
p1436
(dp1437
g5
F220.0
sg6
(F182.29831646842246
F185.8304515891009
F221.50125183614026
tp1438
sg8
F0.030709101060859854
sg9
g10
(g11
g12
Ntp1439
Rp1440
(dp1441
g16
F76.275235522679552
sg17
g18
sg19
F5.9768867114602937
sg20
F-18.458431538961651
sg21
(lp1442
g23
ag17
asg23
g24
sbsba(icolor_base
Bucket
p1443
(dp1444
g5
F195.0
sg6
(F36.351906196876875
F28.003143486914848
F68.219512597044073
tp1445
sg8
F0.027219430485762145
sg9
g10
(g11
g12
Ntp1446
Rp1447
(dp1448
g16
F13.368946786357245
sg17
g18
sg19
F15.601434136729264
sg20
F-24.034680854935509
sg21
(lp1449
g23
ag17
asg23
g24
sbsba(icolor_base
Bucket
p1450
(dp1451
g5
F143.0
sg6
(F129.89004218578637
F133.15721370832296
F194.76417864614996
tp1452
sg8
F0.019960915689558906
sg9
g10
(g11
g12
Ntp1453
Rp1454
(dp1455
g16
F57.521370889496922
sg17
g18
sg19
F13.564734347898789
sg20
F-32.612028793244917
sg21
(lp1456
g23
ag17
asg23
g24
sbsba(icolor_base
Bucket
p1457
(dp1458
g5
F137.0
sg6
(F240.91138859734644
F197.44236044328795
F188.2599400112629
tp1459
sg8
F0.019123394751535454
sg9
g10
(g11
g12
Ntp1460
Rp1461
(dp1462
g16
F83.054661295777123
sg17
g18
sg19
F14.273673860805747
sg20
F10.39833439913609
sg21
(lp1463
g23
ag17
asg23
g24
sbsba(icolor_base
Bucket
p1464
(dp1465
g5
F96.0
sg6
(F78.741573910428698
F72.603488980814689
F107.19680326624506
tp1466
sg8
F0.01340033500837521
sg9
g10
(g11
g12
Ntp1467
Rp1468
(dp1469
g16
F32.894807539430964
sg17
g18
sg19
F10.720855988734096
sg20
F-18.806956597042699
sg21
(lp1470
g23
ag17
asg23
g24
sbsbatp1471
a(S'photos/Sam_Adams_Noble_Pils.png'
p1472
(lp1473
(icolor_base
Bucket
p1474
(dp1475
g5
F5377.0
sg6
(F156.77032159058408
F198.52943708530208
F83.730428440313261
tp1476
sg8
F0.75055834729201565
sg9
g10
(g11
g12
Ntp1477
Rp1478
(dp1479
g16
F75.235817310310338
sg17
g18
sg19
F-31.737132946345891
sg20
F52.015729589810064
sg21
(lp1480
g23
ag17
asg23
g24
sbsba(icolor_base
Bucket
p1481
(dp1482
g5
F1012.0
sg6
(F192.04329429619705
F196.14811501463558
F179.45141331998067
tp1483
sg8
F0.14126186487995535
sg9
g10
(g11
g12
Ntp1484
Rp1485
(dp1486
g16
F78.427306485416125
sg17
g18
sg19
F-4.4301364921036086
sg20
F8.0507867206147878
sg21
(lp1487
g23
ag17
asg23
g24
sbsba(icolor_base
Bucket
p1488
(dp1489
g5
F461.0
sg6
(F38.990373986093566
F64.846637944397202
F150.67902638693749
tp1490
sg8
F0.06434952540480178
sg9
g10
(g11
g12
Ntp1491
Rp1492
(dp1493
g16
F30.510275833534124
sg17
g18
sg19
F21.457268106062578
sg20
F-50.071035159684385
sg21
(lp1494
g23
ag17
asg23
g24
sbsba(icolor_base
Bucket
p1495
(dp1496
g5
F69.0
sg6
(F210.19126908579102
F227.99095793795797
F168.06072711252654
tp1497
sg8
F0.0096314907872696812
sg9
g10
(g11
g12
Ntp1498
Rp1499
(dp1500
g16
F87.975994058059371
sg17
g18
sg19
F-15.971805609320434
sg20
F27.361299273046381
sg21
(lp1501
g23
ag17
asg23
g24
sbsba(icolor_base
Bucket
p1502
(dp1503
g5
F66.0
sg6
(F147.10196464836423
F160.56704803284936
F196.44446558263667
tp1504
sg8
F0.009212730318257957
sg9
g10
(g11
g12
Ntp1505
Rp1506
(dp1507
g16
F66.27288432446602
sg17
g18
sg19
F2.8656310770635574
sg20
F-19.600360047696253
sg21
(lp1508
g23
ag17
asg23
g24
sbsba(icolor_base
Bucket
p1509
(dp1510
g5
F60.0
sg6
(F82.148774818401932
F148.18203389830501
F73.745055690072618
tp1511
sg8
F0.0083752093802345051
sg9
g10
(g11
g12
Ntp1512
Rp1513
(dp1514
g16
F55.5503372389296
sg17
g18
sg19
F-36.38644814617237
sg20
F32.525714706192865
sg21
(lp1515
g23
ag17
asg23
g24
sbsbatp1516
a(S'photos/Sam_Adams_Winter_Lager.png'
p1517
(lp1518
(icolor_base
Bucket
p1519
(dp1520
g5
F3585.0
sg6
(F56.020755037262269
F64.937583710780459
F176.99724046368337
tp1521
sg8
F0.50104821802935007
sg9
g10
(g11
g12
Ntp1522
Rp1523
(dp1524
g16
F33.552327703381437
sg17
g18
sg19
F33.391692533165482
sg20
F-60.72119053907722
sg21
(lp1525
g23
ag17
asg23
g24
sbsba(icolor_base
Bucket
p1526
(dp1527
g5
F1580.0
sg6
(F216.08489216146663
F216.95572279567489
F215.96196681492987
tp1528
sg8
F0.22082459818308875
sg9
g10
(g11
g12
Ntp1529
Rp1530
(dp1531
g16
F86.594315568773368
sg17
g18
sg19
F-0.52000803978891064
sg20
F0.36420620693855543
sg21
(lp1532
g23
ag17
asg23
g24
sbsba(icolor_base
Bucket
p1533
(dp1534
g5
F512.0
sg6
(F103.66173162806332
F111.09808924810149
F207.67020160165609
tp1535
sg8
F0.071558350803633819
sg9
g10
(g11
g12
Ntp1536
Rp1537
(dp1538
g16
F50.529123305488412
sg17
g18
sg19
F23.800668036796647
sg20
F-51.165084171349037
sg21
(lp1539
g23
ag17
asg23
g24
sbsba(icolor_base
Bucket
p1540
(dp1541
g5
F412.0
sg6
(F61.659574893054817
F89.029125572239209
F72.816652352479665
tp1542
sg8
F0.05758211041229909
sg9
g10
(g11
g12
Ntp1543
Rp1544
(dp1545
g16
F35.300869838536563
sg17
g18
sg19
F-13.951590566150724
sg20
F6.0440343996316486
sg21
(lp1546
g23
ag17
asg23
g24
sbsba(icolor_base
Bucket
p1547
(dp1548
g5
F366.0
sg6
(F174.28367132660574
F180.68749630111913
F227.29172787241558
tp1549
sg8
F0.051153039832285113
sg9
g10
(g11
g12
Ntp1550
Rp1551
(dp1552
g16
F74.566727703832072
sg17
g18
sg19
F7.3605781796412533
sg20
F-23.819222961213772
sg21
(lp1553
g23
ag17
asg23
g24
sbsba(icolor_base
Bucket
p1554
(dp1555
g5
F218.0
sg6
(F123.13562649634864
F113.27068500962447
F151.799126743686
tp1556
sg8
F0.030468204053109713
sg9
g10
(g11
g12
Ntp1557
Rp1558
(dp1559
g16
F49.843777930727967
sg17
g18
sg19
F12.291416199564587
sg20
F-19.716406280269496
sg21
(lp1560
g23
ag17
asg23
g24
sbsba(icolor_base
Bucket
p1561
(dp1562
g5
F137.0
sg6
(F170.68329555906888
F162.34950658054751
F167.08835522487237
tp1563
sg8
F0.01914744933612858
sg9
g10
(g11
g12
Ntp1564
Rp1565
(dp1566
g16
F67.493150635470244
sg17
g18
sg19
F4.1718627030567497
sg20
F-1.4283374701206553
sg21
(lp1567
g23
ag17
asg23
g24
sbsba(icolor_base
Bucket
p1568
(dp1569
g5
F134.0
sg6
(F187.3205832522255
F196.77045199731231
F164.60858278017875
tp1570
sg8
F0.018728162124388541
sg9
g10
(g11
g12
Ntp1571
Rp1572
(dp1573
g16
F78.001064218505107
sg17
g18
sg19
F-9.0895955868861016
sg20
F14.908164300793803
sg21
(lp1574
g23
ag17
asg23
g24
sbsbatp1575
a(S'photos/SanMiguel_PalePilsner.png'
p1576
(lp1577
(icolor_base
Bucket
p1578
(dp1579
g5
F4952.0
sg6
(F203.33123785151614
F184.37857677493463
F109.88785150780824
tp1580
sg8
F0.6912339475153545
sg9
g10
(g11
g12
Ntp1581
Rp1582
(dp1583
g16
F74.890720367418723
sg17
g18
sg19
F-3.278694552317829
sg20
F39.906925766689127
sg21
(lp1584
g23
ag17
asg23
g24
sbsba(icolor_base
Bucket
p1585
(dp1586
g5
F719.0
sg6
(F131.56399379478225
F120.23834239935516
F62.97860063048838
tp1587
sg8
F0.10036292573981016
sg9
g10
(g11
g12
Ntp1588
Rp1589
(dp1590
g16
F50.331741740560005
sg17
g18
sg19
F-3.4868805607314868
sg20
F32.713397100752459
sg21
(lp1591
g23
ag17
asg23
g24
sbsba(icolor_base
Bucket
p1592
(dp1593
g5
F680.0
sg6
(F194.26813906401131
F70.370870146803298
F48.504708844965776
tp1594
sg8
F0.094919039642657729
sg9
g10
(g11
g12
Ntp1595
Rp1596
(dp1597
g16
F47.071585206321579
sg17
g18
sg19
F48.472120282695819
sg20
F38.625677792283732
sg21
(lp1598
g23
ag17
asg23
g24
sbsba(icolor_base
Bucket
p1599
(dp1600
g5
F427.0
sg6
(F70.696720666605671
F62.674315330879267
F33.088710756536557
tp1601
sg8
F0.0596035734226689
sg9
g10
(g11
g12
Ntp1602
Rp1603
(dp1604
g16
F26.74767945128545
sg17
g18
sg19
F-1.3804846709639662
sg20
F19.563657251443058
sg21
(lp1605
g23
ag17
asg23
g24
sbsba(icolor_base
Bucket
p1606
(dp1607
g5
F132.0
sg6
(F122.83087360126515
F47.423959765222698
F29.626483696331888
tp1608
sg8
F0.018425460636515914
sg9
g10
(g11
g12
Ntp1609
Rp1610
(dp1611
g16
F30.251365013559415
sg17
g18
sg19
F32.025447674227159
sg20
F27.366332304328456
sg21
(lp1612
g23
ag17
asg23
g24
sbsbatp1613
a(S'photos/Sea_Dog_Blue_Paw_Wild_Blueberry_Wheat_Ale.png'
p1614
(lp1615
(icolor_base
Bucket
p1616
(dp1617
g5
F4622.0
sg6
(F199.30482828948215
F185.56534709845857
F117.21459787934455
tp1618
sg8
F0.64517029592406472
sg9
g10
(g11
g12
Ntp1619
Rp1620
(dp1621
g16
F75.167483264196903
sg17
g18
sg19
F-5.2304976534700565
sg20
F36.600863356867208
sg21
(lp1622
g23
ag17
asg23
g24
sbsba(icolor_base
Bucket
p1623
(dp1624
g5
F2245.0
sg6
(F48.142584266520565
F49.534523648117727
F92.183705168587721
tp1625
sg8
F0.31337241764377444
sg9
g10
(g11
g12
Ntp1626
Rp1627
(dp1628
g16
F22.59157260375293
sg17
g18
sg19
F11.692698930082207
sg20
F-25.494710106728647
sg21
(lp1629
g23
ag17
asg23
g24
sbsba(icolor_base
Bucket
p1630
(dp1631
g5
F100.0
sg6
(F109.23901924953795
F102.30257298728864
F95.741768048290169
tp1632
sg8
F0.013958682300390842
sg9
g10
(g11
g12
Ntp1633
Rp1634
(dp1635
g16
F43.651701203272268
sg17
g18
sg19
F1.6076442779056066
sg20
F4.3737724126354127
sg21
(lp1636
g23
ag17
asg23
g24
sbsba(icolor_base
Bucket
p1637
(dp1638
g5
F92.0
sg6
(F250.97221725754738
F248.12171129426346
F226.00427392205791
tp1639
sg8
F0.012841987716359575
sg9
g10
(g11
g12
Ntp1640
Rp1641
(dp1642
g16
F97.282517825797129
sg17
g18
sg19
F-2.6737763253190661
sg20
F10.916845110147255
sg21
(lp1643
g23
ag17
asg23
g24
sbsbatp1644
a(S'photos/Shiner_Bock.png'
p1645
(lp1646
(icolor_base
Bucket
p1647
(dp1648
g5
F3308.0
sg6
(F238.24819621490786
F161.70972885115955
F68.819728571460431
tp1649
sg8
F0.4619466554950426
sg9
g10
(g11
g12
Ntp1650
Rp1651
(dp1652
g16
F72.528694387900671
sg17
g18
sg19
F20.024690866372207
sg20
F57.781236396826152
sg21
(lp1653
g23
ag17
asg23
g24
sbsba(icolor_base
Bucket
p1654
(dp1655
g5
F1344.0
sg6
(F248.47182215984537
F79.808930796177165
F60.972045108901987
tp1656
sg8
F0.18768328445747801
sg9
g10
(g11
g12
Ntp1657
Rp1658
(dp1659
g16
F58.070782650119966
sg17
g18
sg19
F62.845509960862913
sg20
F46.809110469108127
sg21
(lp1660
g23
ag17
asg23
g24
sbsba(icolor_base
Bucket
p1661
(dp1662
g5
F1010.0
sg6
(F171.84545696681008
F99.363184029937912
F45.244376440876344
tp1663
sg8
F0.14104175394497975
sg9
g10
(g11
g12
Ntp1664
Rp1665
(dp1666
g16
F49.356992591924026
sg17
g18
sg19
F25.04830073253045
sg20
F42.136672364888604
sg21
(lp1667
g23
ag17
asg23
g24
sbsba(icolor_base
Bucket
p1668
(dp1669
g5
F906.0
sg6
(F104.43820278404478
F45.479666210587332
F25.494927963987781
tp1670
sg8
F0.1265186426476749
sg9
g10
(g11
g12
Ntp1671
Rp1672
(dp1673
g16
F26.42097760508139
sg17
g18
sg19
F24.952770391587276
sg20
F25.148683314187885
sg21
(lp1674
g23
ag17
asg23
g24
sbsba(icolor_base
Bucket
p1675
(dp1676
g5
F512.0
sg6
(F225.84788608209644
F195.09820805582999
F115.06212677705183
tp1677
sg8
F0.07149839407903924
sg9
g10
(g11
g12
Ntp1678
Rp1679
(dp1680
g16
F79.862727727026311
sg17
g18
sg19
F0.8471616269749016
sg20
F44.017113094602081
sg21
(lp1681
g23
ag17
asg23
g24
sbsba(icolor_base
Bucket
p1682
(dp1683
g5
F61.0
sg6
(F238.42576414280015
F134.05760381618322
F84.195963013060108
tp1684
sg8
F0.0085183633570730354
sg9
g10
(g11
g12
Ntp1685
Rp1686
(dp1687
g16
F66.42130992313723
sg17
g18
sg19
F35.545998951085402
sg20
F43.824273564891236
sg21
(lp1688
g23
ag17
asg23
g24
sbsbatp1689
a(S'photos/Shipyard_IPA.png'
p1690
(lp1691
(icolor_base
Bucket
p1692
(dp1693
g5
F2019.0
sg6
(F216.9002142522678
F68.297395154645258
F65.185595446576073
tp1694
sg8
F0.28182579564489113
sg9
g10
(g11
g12
Ntp1695
Rp1696
(dp1697
g16
F51.002974317535646
sg17
g18
sg19
F57.71250244677811
sg20
F35.194548709406135
sg21
(lp1698
g23
ag17
asg23
g24
sbsba(icolor_base
Bucket
p1699
(dp1700
g5
F1653.0
sg6
(F210.34803774080541
F207.16035598161608
F203.93674236714244
tp1701
sg8
F0.23073701842546063
sg9
g10
(g11
g12
Ntp1702
Rp1703
(dp1704
g16
F83.277440387144466
sg17
g18
sg19
F0.49298771151051746
sg20
F1.843774180317137
sg21
(lp1705
g23
ag17
asg23
g24
sbsba(icolor_base
Bucket
p1706
(dp1707
g5
F1328.0
sg6
(F56.474880402407997
F46.238367107684425
F106.43711337192282
tp1708
sg8
F0.18537130094919041
sg9
g10
(g11
g12
Ntp1709
Rp1710
(dp1711
g16
F23.119132021478649
sg17
g18
sg19
F21.304091273990327
sg20
F-33.73994822325411
sg21
(lp1712
g23
ag17
asg23
g24
sbsba(icolor_base
Bucket
p1713
(dp1714
g5
F601.0
sg6
(F106.18751170508351
F95.881316859995536
F141.7553467022986
tp1715
sg8
F0.083891680625348963
sg9
g10
(g11
g12
Ntp1716
Rp1717
(dp1718
g16
F43.334508745396178
sg17
g18
sg19
F14.499295405343171
sg20
F-23.939742549042119
sg21
(lp1719
g23
ag17
asg23
g24
sbsba(icolor_base
Bucket
p1720
(dp1721
g5
F420.0
sg6
(F163.26562796250218
F161.3896250216894
F192.13473641861813
tp1722
sg8
F0.058626465661641543
sg9
g10
(g11
g12
Ntp1723
Rp1724
(dp1725
g16
F67.338381294147467
sg17
g18
sg19
F7.0514887811707343
sg20
F-15.647714407532231
sg21
(lp1726
g23
ag17
asg23
g24
sbsba(icolor_base
Bucket
p1727
(dp1728
g5
F285.0
sg6
(F150.48556339349187
F46.800892766789005
F52.561167630019746
tp1729
sg8
F0.039782244556113906
sg9
g10
(g11
g12
Ntp1730
Rp1731
(dp1732
g16
F35.548683598683368
sg17
g18
sg19
F43.349558361506226
sg20
F20.704808812919641
sg21
(lp1733
g23
ag17
asg23
g24
sbsba(icolor_base
Bucket
p1734
(dp1735
g5
F141.0
sg6
(F126.61275126206873
F117.52986006951708
F127.42631463587405
tp1736
sg8
F0.019681742043551088
sg9
g10
(g11
g12
Ntp1737
Rp1738
(dp1739
g16
F50.688751245956027
sg17
g18
sg19
F5.2143850234888101
sg20
F-3.6817827939632286
sg21
(lp1740
g23
ag17
asg23
g24
sbsba(icolor_base
Bucket
p1741
(dp1742
g5
F137.0
sg6
(F87.9380862148804
F44.247636644165404
F61.098218045704023
tp1743
sg8
F0.019123394751535454
sg9
g10
(g11
g12
Ntp1744
Rp1745
(dp1746
g16
F24.364639026520926
sg17
g18
sg19
F22.495140990718919
sg20
F-1.6615009442369266
sg21
(lp1747
g23
ag17
asg23
g24
sbsba(icolor_base
Bucket
p1748
(dp1749
g5
F130.0
sg6
(F231.93897608408363
F149.02708333249578
F159.16899348115879
tp1750
sg8
F0.018146286990508097
sg9
g10
(g11
g12
Ntp1751
Rp1752
(dp1753
g16
F70.285540263071141
sg17
g18
sg19
F32.470225492466696
sg20
F7.8400357836154067
sg21
(lp1754
g23
ag17
asg23
g24
sbsba(icolor_base
Bucket
p1755
(dp1756
g5
F130.0
sg6
(F236.07386577997414
F200.72485611641122
F200.79438595779658
tp1757
sg8
F0.018146286990508097
sg9
g10
(g11
g12
Ntp1758
Rp1759
(dp1760
g16
F83.874365611709493
sg17
g18
sg19
F12.315330673266732
sg20
F4.5786397518090549
sg21
(lp1761
g23
ag17
asg23
g24
sbsbatp1762
a(S'photos/Shriner_Black_Lager.png'
p1763
(lp1764
(icolor_base
Bucket
p1765
(dp1766
g5
F5535.0
sg6
(F29.846318956222447
F28.720032930300654
F24.794013220957659
tp1767
sg8
F0.77261306532663321
sg9
g10
(g11
g12
Ntp1768
Rp1769
(dp1770
g16
F10.740117243472127
sg17
g18
sg19
F-0.46545779349588257
sg20
F2.9272437748679767
sg21
(lp1771
g23
ag17
asg23
g24
sbsba(icolor_base
Bucket
p1772
(dp1773
g5
F1007.0
sg6
(F233.46796599369637
F231.16378614744374
F215.82963718236076
tp1774
sg8
F0.14056393076493578
sg9
g10
(g11
g12
Ntp1775
Rp1776
(dp1777
g16
F91.430100890750211
sg17
g18
sg19
F-1.9020704113181242
sg20
F7.5290063603112634
sg21
(lp1778
g23
ag17
asg23
g24
sbsba(icolor_base
Bucket
p1779
(dp1780
g5
F239.0
sg6
(F181.65553045684746
F169.31314220065076
F144.46053642903104
tp1781
sg8
F0.033361250697934115
sg9
g10
(g11
g12
Ntp1782
Rp1783
(dp1784
g16
F69.707601792492824
sg17
g18
sg19
F0.56226704558037799
sg20
F14.605169361258262
sg21
(lp1785
g23
ag17
asg23
g24
sbsba(icolor_base
Bucket
p1786
(dp1787
g5
F132.0
sg6
(F202.15309034690313
F203.10654557999101
F219.08899231391561
tp1788
sg8
F0.018425460636515914
sg9
g10
(g11
g12
Ntp1789
Rp1790
(dp1791
g16
F82.045752914612677
sg17
g18
sg19
F2.6948567442207638
sg20
F-8.0450511569614136
sg21
(lp1792
g23
ag17
asg23
g24
sbsbatp1793
a(S'photos/Shriner_Hefeweizen.png'
p1794
(lp1795
(icolor_base
Bucket
p1796
(dp1797
g5
F4295.0
sg6
(F211.39937038372508
F105.90727252383462
F49.929811601957638
tp1798
sg8
F0.60036343304445061
sg9
g10
(g11
g12
Ntp1799
Rp1800
(dp1801
g16
F56.476409293595736
sg17
g18
sg19
F37.579319493140474
sg20
F48.814820169309151
sg21
(lp1802
g23
ag17
asg23
g24
sbsba(icolor_base
Bucket
p1803
(dp1804
g5
F1346.0
sg6
(F209.96093568737962
F180.0778388667074
F80.231584711644501
tp1805
sg8
F0.18814649147330165
sg9
g10
(g11
g12
Ntp1806
Rp1807
(dp1808
g16
F74.14171790480404
sg17
g18
sg19
F-0.7356586895227446
sg20
F53.73071033045165
sg21
(lp1809
g23
ag17
asg23
g24
sbsba(icolor_base
Bucket
p1810
(dp1811
g5
F774.0
sg6
(F225.80256710097873
F154.28297953858245
F72.387281708226553
tp1812
sg8
F0.10819122169415711
sg9
g10
(g11
g12
Ntp1813
Rp1814
(dp1815
g16
F69.291555657813277
sg17
g18
sg19
F19.417812574637871
sg20
F52.567594052907218
sg21
(lp1816
g23
ag17
asg23
g24
sbsba(icolor_base
Bucket
p1817
(dp1818
g5
F449.0
sg6
(F149.57459436726094
F69.073626521711859
F32.911174231142461
tp1819
sg8
F0.062762091137824993
sg9
g10
(g11
g12
Ntp1820
Rp1821
(dp1822
g16
F39.329250726895467
sg17
g18
sg19
F31.598318895438045
sg20
F36.755250944885532
sg21
(lp1823
g23
ag17
asg23
g24
sbsba(icolor_base
Bucket
p1824
(dp1825
g5
F217.0
sg6
(F152.45377903029362
F121.25164163718004
F50.658413186339203
tp1826
sg8
F0.030332681017612523
sg9
g10
(g11
g12
Ntp1827
Rp1828
(dp1829
g16
F52.49789927407744
sg17
g18
sg19
F4.0370474598777628
sg20
F41.855529701184004
sg21
(lp1830
g23
ag17
asg23
g24
sbsba(icolor_base
Bucket
p1831
(dp1832
g5
F28.0
sg6
(F252.34884033613449
F239.65401680672269
F178.35260504201679
tp1833
sg8
F0.0039138943248532287
sg9
g10
(g11
g12
Ntp1834
Rp1835
(dp1836
g16
F94.4110844424319
sg17
g18
sg19
F-5.1267924434085232
sg20
F31.48752077163881
sg21
(lp1837
g23
ag17
asg23
g24
sbsba(icolor_base
Bucket
p1838
(dp1839
g5
F20.0
sg6
(F106.46923076923079
F108.9034188034188
F41.386324786324785
tp1840
sg8
F0.0027956388034665923
sg9
g10
(g11
g12
Ntp1841
Rp1842
(dp1843
g16
F44.46390998126472
sg17
g18
sg19
F-11.099538232679285
sg20
F36.624271059055324
sg21
(lp1844
g23
ag17
asg23
g24
sbsbatp1845
a(S'photos/Sierra_Nevada_Glissade.png'
p1846
(lp1847
(icolor_base
Bucket
p1848
(dp1849
g5
F4977.0
sg6
(F202.09506675149126
F185.38439577286755
F110.84326687114449
tp1850
sg8
F0.69472361809045224
sg9
g10
(g11
g12
Ntp1851
Rp1852
(dp1853
g16
F75.078541875100953
sg17
g18
sg19
F-4.1123135126635013
sg20
F39.614381170252358
sg21
(lp1854
g23
ag17
asg23
g24
sbsba(icolor_base
Bucket
p1855
(dp1856
g5
F864.0
sg6
(F149.25928330351383
F135.27037980530488
F79.998095898152755
tp1857
sg8
F0.12060301507537688
sg9
g10
(g11
g12
Ntp1858
Rp1859
(dp1860
g16
F56.384180334640874
sg17
g18
sg19
F-2.6685467656049622
sg20
F31.389584378713909
sg21
(lp1861
g23
ag17
asg23
g24
sbsba(icolor_base
Bucket
p1862
(dp1863
g5
F816.0
sg6
(F65.395299594630075
F52.826566283329051
F30.688727117576146
tp1864
sg8
F0.11390284757118928
sg9
g10
(g11
g12
Ntp1865
Rp1866
(dp1867
g16
F22.892847759259546
sg17
g18
sg19
F1.8208651294340517
sg20
F15.837136698952737
sg21
(lp1868
g23
ag17
asg23
g24
sbsba(icolor_base
Bucket
p1869
(dp1870
g5
F346.0
sg6
(F105.90643140909724
F96.041930464961197
F56.309105344161608
tp1871
sg8
F0.048297040759352317
sg9
g10
(g11
g12
Ntp1872
Rp1873
(dp1874
g16
F40.760649444049669
sg17
g18
sg19
F-2.1792727313936777
sg20
F24.239708875864263
sg21
(lp1875
g23
ag17
asg23
g24
sbsba(icolor_base
Bucket
p1876
(dp1877
g5
F97.0
sg6
(F252.24759019854
F252.4953827039229
F242.53389933838176
tp1878
sg8
F0.013539921831379118
sg9
g10
(g11
g12
Ntp1879
Rp1880
(dp1881
g16
F98.744246110068318
sg17
g18
sg19
F-1.5523478909411081
sg20
F4.2944396055788703
sg21
(lp1882
g23
ag17
asg23
g24
sbsbatp1883
a(S'photos/Sierra_Nevada_Kellerweis.png'
p1884
(lp1885
(icolor_base
Bucket
p1886
(dp1887
g5
F5368.0
sg6
(F235.76862394390355
F180.5463427830928
F72.221067428006322
tp1888
sg8
F0.74982539460818554
sg9
g10
(g11
g12
Ntp1889
Rp1890
(dp1891
g16
F76.891234190774441
sg17
g18
sg19
F9.2950799417854668
sg20
F60.95210015870309
sg21
(lp1892
g23
ag17
asg23
g24
sbsba(icolor_base
Bucket
p1893
(dp1894
g5
F1049.0
sg6
(F181.87594118754674
F76.843938396196847
F39.506856579596189
tp1895
sg8
F0.14652884481072775
sg9
g10
(g11
g12
Ntp1896
Rp1897
(dp1898
g16
F46.188448142657244
sg17
g18
sg19
F40.464994404948605
sg20
F41.830161926677413
sg21
(lp1899
g23
ag17
asg23
g24
sbsba(icolor_base
Bucket
p1900
(dp1901
g5
F675.0
sg6
(F201.57920297611017
F130.52906537110056
F55.982848703710118
tp1902
sg8
F0.094286911579829588
sg9
g10
(g11
g12
Ntp1903
Rp1904
(dp1905
g16
F60.849504754998094
sg17
g18
sg19
F20.839968594162926
sg20
F50.131444578120508
sg21
(lp1906
g23
ag17
asg23
g24
sbsba(icolor_base
Bucket
p1907
(dp1908
g5
F43.0
sg6
(F250.18115028424711
F233.20947758114798
F190.04346231432237
tp1909
sg8
F0.0060064254784187735
sg9
g10
(g11
g12
Ntp1910
Rp1911
(dp1912
g16
F92.716226064265655
sg17
g18
sg19
F-0.77411194364163105
sg20
F23.018560667477317
sg21
(lp1913
g23
ag17
asg23
g24
sbsbatp1914
a(S'photos/Sierra_Nevada_Pale_Ale.png'
p1915
(lp1916
(icolor_base
Bucket
p1917
(dp1918
g5
F4541.0
sg6
(F19.07547639090814
F202.34447518920098
F80.058613646606645
tp1919
sg8
F0.63386376326074823
sg9
g10
(g11
g12
Ntp1920
Rp1921
(dp1922
g16
F71.52518795855724
sg17
g18
sg19
F-66.430365198183068
sg20
F48.359100538299217
sg21
(lp1923
g23
ag17
asg23
g24
sbsba(icolor_base
Bucket
p1924
(dp1925
g5
F1205.0
sg6
(F218.22635795465749
F239.13693219367087
F222.56657717771279
tp1926
sg8
F0.16820212171970966
sg9
g10
(g11
g12
Ntp1927
Rp1928
(dp1929
g16
F92.55957745841188
sg17
g18
sg19
F-9.8338007250366459
sg20
F5.3739010864018999
sg21
(lp1930
g23
ag17
asg23
g24
sbsba(icolor_base
Bucket
p1931
(dp1932
g5
F486.0
sg6
(F13.939396364475053
F127.21801584801018
F60.05874453204234
tp1933
sg8
F0.0678391959798995
sg9
g10
(g11
g12
Ntp1934
Rp1935
(dp1936
g16
F46.441821451016921
sg17
g18
sg19
F-44.802950513449844
sg20
F28.180948884290522
sg21
(lp1937
g23
ag17
asg23
g24
sbsba(icolor_base
Bucket
p1938
(dp1939
g5
F440.0
sg6
(F166.77588864249199
F215.45716801651074
F149.8997052779371
tp1940
sg8
F0.061418202121719709
sg9
g10
(g11
g12
Ntp1941
Rp1942
(dp1943
g16
F81.301074581974447
sg17
g18
sg19
F-27.578184660060458
sg20
F27.154323994907116
sg21
(lp1944
g23
ag17
asg23
g24
sbsba(icolor_base
Bucket
p1945
(dp1946
g5
F439.0
sg6
(F93.570011155757015
F197.63654291644414
F167.34552075447704
tp1947
sg8
F0.061278615298715804
sg9
g10
(g11
g12
Ntp1948
Rp1949
(dp1950
g16
F73.256218306097907
sg17
g18
sg19
F-37.677944227465673
sg20
F6.3911793264798122
sg21
(lp1951
g23
ag17
asg23
g24
sbsbatp1952
a(S'photos/Sierra_Nevada_Porter.png'
p1953
(lp1954
(icolor_base
Bucket
p1955
(dp1956
g5
F4634.0
sg6
(F153.22583352251897
F103.93909587459233
F59.575817468986735
tp1957
sg8
F0.64603373762721317
sg9
g10
(g11
g12
Ntp1958
Rp1959
(dp1960
g16
F48.260433163439544
sg17
g18
sg19
F14.87112489206438
sg20
F32.386586129448425
sg21
(lp1961
g23
ag17
asg23
g24
sbsba(icolor_base
Bucket
p1962
(dp1963
g5
F1611.0
sg6
(F228.75696259538458
F192.89021990658787
F117.04861139787867
tp1964
sg8
F0.2245922208281054
sg9
g10
(g11
g12
Ntp1965
Rp1966
(dp1967
g16
F79.661708937719325
sg17
g18
sg19
F3.2938995286774242
sg20
F42.828805248752452
sg21
(lp1968
g23
ag17
asg23
g24
sbsba(icolor_base
Bucket
p1969
(dp1970
g5
F780.0
sg6
(F188.50184612496105
F142.00432402511174
F81.950598061668884
tp1971
sg8
F0.10874111250522794
sg9
g10
(g11
g12
Ntp1972
Rp1973
(dp1974
g16
F62.317749575000505
sg17
g18
sg19
F10.919339589052335
sg20
F38.539281837485476
sg21
(lp1975
g23
ag17
asg23
g24
sbsba(icolor_base
Bucket
p1976
(dp1977
g5
F142.0
sg6
(F106.08072847498299
F71.428810220056093
F39.991970991054018
tp1978
sg8
F0.019796458943259446
sg9
g10
(g11
g12
Ntp1979
Rp1980
(dp1981
g16
F33.402111180292032
sg17
g18
sg19
F11.356947162112441
sg20
F24.459588078931006
sg21
(lp1982
g23
ag17
asg23
g24
sbsbatp1983
a(S'photos/Sierra_Nevada_Stout.png'
p1984
(lp1985
(icolor_base
Bucket
p1986
(dp1987
g5
F4988.0
sg6
(F244.2485738415686
F103.99484516028473
F82.501960493167942
tp1988
sg8
F0.69713487071977642
sg9
g10
(g11
g12
Ntp1989
Rp1990
(dp1991
g16
F61.448861533680031
sg17
g18
sg19
F52.43435488693143
sg20
F38.665339181458528
sg21
(lp1992
g23
ag17
asg23
g24
sbsba(icolor_base
Bucket
p1993
(dp1994
g5
F785.0
sg6
(F251.31104735671352
F235.33729226467301
F218.96198772580931
tp1995
sg8
F0.10971348707197764
sg9
g10
(g11
g12
Ntp1996
Rp1997
(dp1998
g16
F93.900890991889611
sg17
g18
sg19
F2.8101402535259945
sg20
F9.697249461481384
sg21
(lp1999
g23
ag17
asg23
g24
sbsba(icolor_base
Bucket
p2000
(dp2001
g5
F463.0
sg6
(F250.27331450263088
F206.03501005019564
F206.75778193447783
tp2002
sg8
F0.06470999301187981
sg9
g10
(g11
g12
Ntp2003
Rp2004
(dp2005
g16
F86.49090646262465
sg17
g18
sg19
F15.613830997745382
sg20
F5.3290572172062456
sg21
(lp2006
g23
ag17
asg23
g24
sbsba(icolor_base
Bucket
p2007
(dp2008
g5
F346.0
sg6
(F246.82649900943423
F186.31812616208791
F149.2293212899078
tp2009
sg8
F0.048357791754018171
sg9
g10
(g11
g12
Ntp2010
Rp2011
(dp2012
g16
F80.215919531505818
sg17
g18
sg19
F17.367581284246757
sg20
F27.317407939188108
sg21
(lp2013
g23
ag17
asg23
g24
sbsba(icolor_base
Bucket
p2014
(dp2015
g5
F321.0
sg6
(F244.43697535403138
F146.74538120398319
F150.4400720335048
tp2016
sg8
F0.044863731656184486
sg9
g10
(g11
g12
Ntp2017
Rp2018
(dp2019
g16
F71.081342748224131
sg17
g18
sg19
F36.832383765867391
sg20
F14.169825826843429
sg21
(lp2020
g23
ag17
asg23
g24
sbsba(icolor_base
Bucket
p2021
(dp2022
g5
F245.0
sg6
(F206.72671272225512
F55.152446924151171
F40.570277150653624
tp2023
sg8
F0.034241788958770093
sg9
g10
(g11
g12
Ntp2024
Rp2025
(dp2026
g16
F47.18523500332406
sg17
g18
sg19
F58.349845646542441
sg20
F43.758614843635598
sg21
(lp2027
g23
ag17
asg23
g24
sbsbatp2028
a(S'photos/Sierra_Nevada_Torpedo.png'
p2029
(lp2030
(icolor_base
Bucket
p2031
(dp2032
g5
F4741.0
sg6
(F62.612714097259705
F86.198344950755612
F71.482098096286336
tp2033
sg8
F0.65865518199499862
sg9
g10
(g11
g12
Ntp2034
Rp2035
(dp2036
g16
F34.328429073250547
sg17
g18
sg19
F-12.309304773315876
sg20
F5.919257115429688
sg21
(lp2037
g23
ag17
asg23
g24
sbsba(icolor_base
Bucket
p2038
(dp2039
g5
F1560.0
sg6
(F217.37382335835281
F218.79880957505543
F205.37167023757596
tp2040
sg8
F0.21672686857460405
sg9
g10
(g11
g12
Ntp2041
Rp2042
(dp2043
g16
F86.909762545938619
sg17
g18
sg19
F-3.1414550143114006
sg20
F6.6367438076484264
sg21
(lp2044
g23
ag17
asg23
g24
sbsba(icolor_base
Bucket
p2045
(dp2046
g5
F308.0
sg6
(F80.918274114940516
F91.864937323632546
F101.11592994412531
tp2047
sg8
F0.042789663795498749
sg9
g10
(g11
g12
Ntp2048
Rp2049
(dp2050
g16
F38.451177742397164
sg17
g18
sg19
F-2.1021252021028447
sg20
F-6.5893174896360822
sg21
(lp2051
g23
ag17
asg23
g24
sbsba(icolor_base
Bucket
p2052
(dp2053
g5
F252.0
sg6
(F144.59111156617493
F145.4344553818141
F122.53821754444846
tp2054
sg8
F0.035009724923589884
sg9
g10
(g11
g12
Ntp2055
Rp2056
(dp2057
g16
F59.617381123509119
sg17
g18
sg19
F-3.9755755122575231
sg20
F11.700719624482247
sg21
(lp2058
g23
ag17
asg23
g24
sbsba(icolor_base
Bucket
p2059
(dp2060
g5
F192.0
sg6
(F178.38251561005765
F189.44120369863836
F206.4868690537015
tp2061
sg8
F0.026674076132258962
sg9
g10
(g11
g12
Ntp2062
Rp2063
(dp2064
g16
F76.262732330669124
sg17
g18
sg19
F-0.35420991528789525
sg20
F-9.8349817302401341
sg21
(lp2065
g23
ag17
asg23
g24
sbsba(icolor_base
Bucket
p2066
(dp2067
g5
F77.0
sg6
(F113.3867845781042
F130.71737698561645
F156.48671970768376
tp2068
sg8
F0.010697415948874687
sg9
g10
(g11
g12
Ntp2069
Rp2070
(dp2071
g16
F54.178510531214513
sg17
g18
sg19
F-0.57855554663632791
sg20
F-15.511605123152371
sg21
(lp2072
g23
ag17
asg23
g24
sbsbatp2073
a(S'photos/Spaten.png'
p2074
(lp2075
(icolor_base
Bucket
p2076
(dp2077
g5
F9382.0
sg6
(F249.93553377472463
F239.99899073404259
F241.78346508656421
tp2078
sg8
F0.64770452191922678
sg9
g10
(g11
g12
Ntp2079
Rp2080
(dp2081
g16
F95.603562763385909
sg17
g18
sg19
F3.692612808272544
sg20
F0.22506163940831936
sg21
(lp2082
g23
ag17
asg23
g24
sbsba(icolor_base
Bucket
p2083
(dp2084
g5
F1183.0
sg6
(F225.06274099330017
F3.9750008647437154
F5.3437887064789571
tp2085
sg8
F0.081670693821194337
sg9
g10
(g11
g12
Ntp2086
Rp2087
(dp2088
g16
F47.11788943633006
sg17
g18
sg19
F72.571986166553529
sg20
F59.690837013648967
sg21
(lp2089
g23
ag17
asg23
g24
sbsba(icolor_base
Bucket
p2090
(dp2091
g5
F987.0
sg6
(F208.90216892346342
F178.79823214979899
F179.02349655248773
tp2092
sg8
F0.068139454608215397
sg9
g10
(g11
g12
Ntp2093
Rp2094
(dp2095
g16
F75.483175576074572
sg17
g18
sg19
F10.778480087648701
sg20
F3.9968596105181886
sg21
(lp2096
g23
ag17
asg23
g24
sbsba(icolor_base
Bucket
p2097
(dp2098
g5
F952.0
sg6
(F22.747009396358436
F12.287451836528751
F16.189769698980825
tp2099
sg8
F0.065723161891612009
sg9
g10
(g11
g12
Ntp2100
Rp2101
(dp2102
g16
g149
(g153
S'd\xe5\x8c\xa8Uo\x11@'
p2103
tp2104
Rp2105
sg17
g18
sg19
g149
(g153
S'\xa2\xa2\xf7\xb1>\x9d\x13@'
p2106
tp2107
Rp2108
sg20
g149
(g153
S'\x0c]Y\xa6\xbf"\xd9\xbf'
p2109
tp2110
Rp2111
sg21
(lp2112
g23
ag17
asg23
g24
sbsba(icolor_base
Bucket
p2113
(dp2114
g5
F558.0
sg6
(F162.71869165081367
F130.12512023519594
F133.17855150580925
tp2115
sg8
F0.038522609596133933
sg9
g10
(g11
g12
Ntp2116
Rp2117
(dp2118
g16
F57.50744090505431
sg17
g18
sg19
F13.135280752346379
sg20
F3.1980040715124947
sg21
(lp2119
g23
ag17
asg23
g24
sbsba(icolor_base
Bucket
p2120
(dp2121
g5
F321.0
sg6
(F76.880317888959851
F51.604527123603326
F56.596069499539418
tp2122
sg8
F0.022160856057991025
sg9
g10
(g11
g12
Ntp2123
Rp2124
(dp2125
g16
F24.731775907852331
sg17
g18
sg19
F12.116279005998292
sg20
F1.3797575766073988
sg21
(lp2126
g23
ag17
asg23
g24
sbsba(icolor_base
Bucket
p2127
(dp2128
g5
F307.0
sg6
(F124.66945635834132
F91.379913932773022
F94.360677617516004
tp2129
sg8
F0.021194338971349671
sg9
g10
(g11
g12
Ntp2130
Rp2131
(dp2132
g16
F42.232374499535709
sg17
g18
sg19
F14.425123494177239
sg20
F3.7660415381408519
sg21
(lp2133
g23
ag17
asg23
g24
sbsba(icolor_base
Bucket
p2134
(dp2135
g5
F172.0
sg6
(F122.95228168704028
F125.71889708423741
F130.40199267844531
tp2136
sg8
F0.011874352778736623
sg9
g10
(g11
g12
Ntp2137
Rp2138
(dp2139
g16
F52.668481623009967
sg17
g18
sg19
F-0.29594996422827036
sg20
F-2.5636944539967343
sg21
(lp2140
g23
ag17
asg23
g24
sbsbatp2141
a(S'photos/Speakeasy_Prohibition.png'
p2142
(lp2143
(icolor_base
Bucket
p2144
(dp2145
g5
F3418.0
sg6
(F211.05981739572687
F206.28602371900365
F194.35828075091035
tp2146
sg8
F0.47770789657582108
sg9
g10
(g11
g12
Ntp2147
Rp2148
(dp2149
g16
F82.853194120810087
sg17
g18
sg19
F-0.3633657088266129
sg20
F6.5678657859600698
sg21
(lp2150
g23
ag17
asg23
g24
sbsba(icolor_base
Bucket
p2151
(dp2152
g5
F1481.0
sg6
(F48.493543313643151
F46.206185090908043
F35.745491680809131
tp2153
sg8
F0.20698812019566737
sg9
g10
(g11
g12
Ntp2154
Rp2155
(dp2156
g16
F18.841918920129004
sg17
g18
sg19
F-1.200014075239314
sg20
F6.7836559091969839
sg21
(lp2157
g23
ag17
asg23
g24
sbsba(icolor_base
Bucket
p2158
(dp2159
g5
F541.0
sg6
(F190.23023607248365
F163.50745002132373
F109.22486395643637
tp2160
sg8
F0.075611460517120893
sg9
g10
(g11
g12
Ntp2161
Rp2162
(dp2163
g16
F68.462927681456023
sg17
g18
sg19
F1.9070234190489699
sg20
F32.021428981816456
sg21
(lp2164
g23
ag17
asg23
g24
sbsba(icolor_base
Bucket
p2165
(dp2166
g5
F424.0
sg6
(F169.89661608106553
F79.748344024068544
F66.218956693374452
tp2167
sg8
F0.059259259259259262
sg9
g10
(g11
g12
Ntp2168
Rp2169
(dp2170
g16
F45.190743787876549
sg17
g18
sg19
F35.759115662705398
sg20
F25.720708739091471
sg21
(lp2171
g23
ag17
asg23
g24
sbsba(icolor_base
Bucket
p2172
(dp2173
g5
F397.0
sg6
(F139.89332529869603
F113.12687817993836
F68.355079466876347
tp2174
sg8
F0.055485674353598885
sg9
g10
(g11
g12
Ntp2175
Rp2176
(dp2177
g16
F49.257208099520795
sg17
g18
sg19
F4.5893472054136524
sg20
F28.852526076420848
sg21
(lp2178
g23
ag17
asg23
g24
sbsba(icolor_base
Bucket
p2179
(dp2180
g5
F257.0
sg6
(F97.63486786933025
F72.614754733424959
F41.847561091102463
tp2181
sg8
F0.035918937805730258
sg9
g10
(g11
g12
Ntp2182
Rp2183
(dp2184
g16
F32.982705672488088
sg17
g18
sg19
F6.4967772921465938
sg20
F22.535095812978902
sg21
(lp2185
g23
ag17
asg23
g24
sbsba(icolor_base
Bucket
p2186
(dp2187
g5
F179.0
sg6
(F109.40645333526737
F105.6006167189189
F97.611845864120824
tp2188
sg8
F0.025017470300489168
sg9
g10
(g11
g12
Ntp2189
Rp2190
(dp2191
g16
F44.859124900990039
sg17
g18
sg19
F-0.38908175795970834
sg20
F4.9006718197700305
sg21
(lp2192
g23
ag17
asg23
g24
sbsba(icolor_base
Bucket
p2193
(dp2194
g5
F163.0
sg6
(F156.77280570075095
F153.59953258864084
F145.56652584256238
tp2195
sg8
F0.022781271837875611
sg9
g10
(g11
g12
Ntp2196
Rp2197
(dp2198
g16
F63.634996151189071
sg17
g18
sg19
F-0.38954244129724147
sg20
F4.5752705486372225
sg21
(lp2199
g23
ag17
asg23
g24
sbsba(icolor_base
Bucket
p2200
(dp2201
g5
F135.0
sg6
(F226.01350884278466
F169.88347147634735
F144.20461676213321
tp2202
sg8
F0.018867924528301886
sg9
g10
(g11
g12
Ntp2203
Rp2204
(dp2205
g16
F74.147524790477846
sg17
g18
sg19
F17.129181990259756
sg20
F21.398224967589808
sg21
(lp2206
g23
ag17
asg23
g24
sbsba(icolor_base
Bucket
p2207
(dp2208
g5
F80.0
sg6
(F86.856626638141861
F78.290613563155489
F87.264774984378946
tp2209
sg8
F0.011180992313067784
sg9
g10
(g11
g12
Ntp2210
Rp2211
(dp2212
g16
F34.32050696401663
sg17
g18
sg19
F5.5945862968013458
sg20
F-3.9270718326190224
sg21
(lp2213
g23
ag17
asg23
g24
sbsbatp2214
a(S'photos/Steelhead_Extra_Pale_Ale.png'
p2215
(lp2216
(icolor_base
Bucket
p2217
(dp2218
g5
F4486.0
sg6
(F189.30631650418658
F171.09841276079428
F145.51672534206139
tp2219
sg8
F0.62618648799553323
sg9
g10
(g11
g12
Ntp2220
Rp2221
(dp2222
g16
F70.885178727091699
sg17
g18
sg19
F2.4759985817999208
sg20
F15.245843630449961
sg21
(lp2223
g23
ag17
asg23
g24
sbsba(icolor_base
Bucket
p2224
(dp2225
g5
F1387.0
sg6
(F102.98060649010399
F87.286142604056607
F67.868981106480007
tp2226
sg8
F0.193606923506421
sg9
g10
(g11
g12
Ntp2227
Rp2228
(dp2229
g16
F38.052645550500301
sg17
g18
sg19
F3.4108185817774417
sg20
F13.486958428137319
sg21
(lp2230
g23
ag17
asg23
g24
sbsba(icolor_base
Bucket
p2231
(dp2232
g5
F807.0
sg6
(F142.28343915555561
F125.3508773873569
F101.19663090020042
tp2233
sg8
F0.11264656616415411
sg9
g10
(g11
g12
Ntp2234
Rp2235
(dp2236
g16
F53.339168358723342
sg17
g18
sg19
F2.614683666147033
sg20
F15.490874807126787
sg21
(lp2237
g23
ag17
asg23
g24
sbsba(icolor_base
Bucket
p2238
(dp2239
g5
F203.0
sg6
(F52.051329875617562
F45.299963271554411
F35.06259703997015
tp2240
sg8
F0.028336125069793411
sg9
g10
(g11
g12
Ntp2241
Rp2242
(dp2243
g16
F18.920922306953827
sg17
g18
sg19
F1.2432359959053674
sg20
F7.6450554682240597
sg21
(lp2244
g23
ag17
asg23
g24
sbsba(icolor_base
Bucket
p2245
(dp2246
g5
F185.0
sg6
(F236.76774406434868
F230.82023702452523
F213.68416548938038
tp2247
sg8
F0.025823562255723059
sg9
g10
(g11
g12
Ntp2248
Rp2249
(dp2250
g16
F91.690159787533602
sg17
g18
sg19
F-0.84043153204521603
sg20
F8.9849897241183854
sg21
(lp2251
g23
ag17
asg23
g24
sbsba(icolor_base
Bucket
p2252
(dp2253
g5
F48.0
sg6
(F173.11916832890071
F166.83740580673759
F168.40979609929076
tp2254
sg8
F0.0067001675041876048
sg9
g10
(g11
g12
Ntp2255
Rp2256
(dp2257
g16
F69.003303074743314
sg17
g18
sg19
F2.3328420944513928
sg20
F0.24411280701843729
sg21
(lp2258
g23
ag17
asg23
g24
sbsbatp2259
a(S'photos/StellaArtois.png'
p2260
(lp2261
(icolor_base
Bucket
p2262
(dp2263
g5
F6998.0
sg6
(F239.47617121186676
F231.73222682085472
F225.9551706870742
tp2264
sg8
F0.48288711012972674
sg9
g10
(g11
g12
Ntp2265
Rp2266
(dp2267
g16
F92.378222561639589
sg17
g18
sg19
F1.3270171267053543
sg20
F3.7423712720547231
sg21
(lp2268
g23
ag17
asg23
g24
sbsba(icolor_base
Bucket
p2269
(dp2270
g5
F3590.0
sg6
(F172.90065012939857
F123.29752810330127
F68.871647842469969
tp2271
sg8
F0.24772288158984268
sg9
g10
(g11
g12
Ntp2272
Rp2273
(dp2274
g16
F55.564621939985997
sg17
g18
sg19
F13.55289032476964
sg20
F36.834625535564236
sg21
(lp2275
g23
ag17
asg23
g24
sbsba(icolor_base
Bucket
p2276
(dp2277
g5
F3359.0
sg6
(F208.06172919738927
F170.82790675513291
F137.17240047911756
tp2278
sg8
F0.23178305271874136
sg9
g10
(g11
g12
Ntp2279
Rp2280
(dp2281
g16
F72.45737784853236
sg17
g18
sg19
F8.6769950165970222
sg20
F22.588740407301501
sg21
(lp2282
g23
ag17
asg23
g24
sbsba(icolor_base
Bucket
p2283
(dp2284
g5
F484.0
sg6
(F244.99274645353645
F218.82039969532511
F168.80989646291195
tp2285
sg8
F0.033397736682307479
sg9
g10
(g11
g12
Ntp2286
Rp2287
(dp2288
g16
F88.419879820774895
sg17
g18
sg19
F1.7665980719526186
sg20
F27.906202295360359
sg21
(lp2289
g23
ag17
asg23
g24
sbsbatp2290
a(S'photos/Stone_Pale_Ale_varietyCaps,2.png'
p2291
(lp2292
(icolor_base
Bucket
p2293
(dp2294
g5
F4987.0
sg6
(F223.71822541509724
F196.40575264999055
F91.755006224426168
tp2295
sg8
F0.69699510831586309
sg9
g10
(g11
g12
Ntp2296
Rp2297
(dp2298
g16
F79.671583421839401
sg17
g18
sg19
F-2.3604744731513527
sg20
F54.795026023912484
sg21
(lp2299
g23
ag17
asg23
g24
sbsba(icolor_base
Bucket
p2300
(dp2301
g5
F780.0
sg6
(F55.903712920772861
F50.776501606768271
F25.494582382151229
tp2302
sg8
F0.1090146750524109
sg9
g10
(g11
g12
Ntp2303
Rp2304
(dp2305
g16
F21.127027682351184
sg17
g18
sg19
F-2.1882940684988528
sg20
F17.213482614552987
sg21
(lp2306
g23
ag17
asg23
g24
sbsba(icolor_base
Bucket
p2307
(dp2308
g5
F690.0
sg6
(F159.95706672683585
F136.26905739235173
F61.197169265246465
tp2309
sg8
F0.096436058700209645
sg9
g10
(g11
g12
Ntp2310
Rp2311
(dp2312
g16
F57.482075217634673
sg17
g18
sg19
F-0.073546245888234107
sg20
F42.754103151523871
sg21
(lp2313
g23
ag17
asg23
g24
sbsba(icolor_base
Bucket
p2314
(dp2315
g5
F629.0
sg6
(F102.88158174610631
F77.030549189616849
F31.595925762209109
tp2316
sg8
F0.087910552061495464
sg9
g10
(g11
g12
Ntp2317
Rp2318
(dp2319
g16
F34.591952169193995
sg17
g18
sg19
F5.5990674045854893
sg20
F30.234697192140136
sg21
(lp2320
g23
ag17
asg23
g24
sbsba(icolor_base
Bucket
p2321
(dp2322
g5
F54.0
sg6
(F253.84576179482727
F248.60237897768525
F207.14625072724795
tp2323
sg8
F0.0075471698113207548
sg9
g10
(g11
g12
Ntp2324
Rp2325
(dp2326
g16
F97.360501917832849
sg17
g18
sg19
F-5.0011607974521084
sg20
F20.795214698033494
sg21
(lp2327
g23
ag17
asg23
g24
sbsbatp2328
a(S'photos/Stone_Pale_Ale_varietyCaps,3.png'
p2329
(lp2330
(icolor_base
Bucket
p2331
(dp2332
g5
F5497.0
sg6
(F218.10516320969165
F195.62193645953076
F96.711651367546324
tp2333
sg8
F0.76827393431167013
sg9
g10
(g11
g12
Ntp2334
Rp2335
(dp2336
g16
F79.18492803206091
sg17
g18
sg19
F-4.4816260022460526
sg20
F51.771602058144481
sg21
(lp2337
g23
ag17
asg23
g24
sbsba(icolor_base
Bucket
p2338
(dp2339
g5
F629.0
sg6
(F64.562720618036479
F55.09340458053218
F22.30318993944757
tp2340
sg8
F0.087910552061495464
sg9
g10
(g11
g12
Ntp2341
Rp2342
(dp2343
g16
F23.385891051602869
sg17
g18
sg19
F-0.44799258945701914
sg20
F21.96068737601793
sg21
(lp2344
g23
ag17
asg23
g24
sbsba(icolor_base
Bucket
p2345
(dp2346
g5
F566.0
sg6
(F164.57214601051948
F145.94926799973572
F65.25758096954209
tp2347
sg8
F0.079105520614954572
sg9
g10
(g11
g12
Ntp2348
Rp2349
(dp2350
g16
F60.728267536145239
sg17
g18
sg19
F-3.0582502711244408
sg20
F44.599500122927481
sg21
(lp2351
g23
ag17
asg23
g24
sbsba(icolor_base
Bucket
p2352
(dp2353
g5
F426.0
sg6
(F116.96453050407196
F100.32310622831395
F41.261246634643378
tp2354
sg8
F0.059538784067085952
sg9
g10
(g11
g12
Ntp2355
Rp2356
(dp2357
g16
F42.848667037682155
sg17
g18
sg19
F-0.79599935059521121
sg20
F35.141813465321171
sg21
(lp2358
g23
ag17
asg23
g24
sbsba(icolor_base
Bucket
p2359
(dp2360
g5
F31.0
sg6
(F251.66849078341019
F248.13402457757297
F214.10215053763443
tp2361
sg8
F0.0043326345213137666
sg9
g10
(g11
g12
Ntp2362
Rp2363
(dp2364
g16
F97.099956380864867
sg17
g18
sg19
F-4.1810680933535576
sg20
F16.827564823276518
sg21
(lp2365
g23
ag17
asg23
g24
sbsbatp2366
a(S'photos/Stone_Pale_Ale_varietyCaps,4.png'
p2367
(lp2368
(icolor_base
Bucket
p2369
(dp2370
g5
F3491.0
sg6
(F209.32024792728407
F196.36701240099009
F106.88595848657258
tp2371
sg8
F0.48729759910664433
sg9
g10
(g11
g12
Ntp2372
Rp2373
(dp2374
g16
F78.518691910193695
sg17
g18
sg19
F-7.3422917728981352
sg20
F45.985125211314745
sg21
(lp2375
g23
ag17
asg23
g24
sbsba(icolor_base
Bucket
p2376
(dp2377
g5
F2549.0
sg6
(F81.881241121193497
F73.198067001207136
F29.864209768253172
tp2378
sg8
F0.35580681183696261
sg9
g10
(g11
g12
Ntp2379
Rp2380
(dp2381
g16
F31.003148199046201
sg17
g18
sg19
F-2.4511656499090484
sg20
F26.639121421259759
sg21
(lp2382
g23
ag17
asg23
g24
sbsba(icolor_base
Bucket
p2383
(dp2384
g5
F1023.0
sg6
(F149.98308831628913
F137.65471930626506
F64.962317512247225
tp2385
sg8
F0.14279731993299832
sg9
g10
(g11
g12
Ntp2386
Rp2387
(dp2388
g16
F57.117494271496739
sg17
g18
sg19
F-5.3079444419055761
sg20
F40.110776219669916
sg21
(lp2389
g23
ag17
asg23
g24
sbsba(icolor_base
Bucket
p2390
(dp2391
g5
F38.0
sg6
(F243.71428571428567
F241.29729729729729
F197.59073359073358
tp2392
sg8
F0.00530429927414852
sg9
g10
(g11
g12
Ntp2393
Rp2394
(dp2395
g16
F94.406961219951313
sg17
g18
sg19
F-5.8715552371843005
sg20
F21.175751163203273
sg21
(lp2396
g23
ag17
asg23
g24
sbsbatp2397
a(S'photos/Stone_Pale_Ale_varietyCaps.png'
p2398
(lp2399
(icolor_base
Bucket
p2400
(dp2401
g5
F4349.0
sg6
(F224.85852965130422
F198.46966202748277
F95.195882766512241
tp2402
sg8
F0.60706309324399776
sg9
g10
(g11
g12
Ntp2403
Rp2404
(dp2405
g16
F80.305207118208429
sg17
g18
sg19
F-2.7611945064933141
sg20
F54.15793374914999
sg21
(lp2406
g23
ag17
asg23
g24
sbsba(icolor_base
Bucket
p2407
(dp2408
g5
F1255.0
sg6
(F166.42514094997534
F146.25204915505788
F65.312052867608713
tp2409
sg8
F0.17518146286990507
sg9
g10
(g11
g12
Ntp2410
Rp2411
(dp2412
g16
F60.823320528687347
sg17
g18
sg19
F-2.6174384139029394
sg20
F44.732215945492563
sg21
(lp2413
g23
ag17
asg23
g24
sbsba(icolor_base
Bucket
p2414
(dp2415
g5
F1021.0
sg6
(F55.475032966834164
F47.600600856028088
F21.11065810933507
tp2416
sg8
F0.1425181462869905
sg9
g10
(g11
g12
Ntp2417
Rp2418
(dp2419
g16
F19.965035849904339
sg17
g18
sg19
F-1.1925646012834745
sg20
F18.269433183680604
sg21
(lp2420
g23
ag17
asg23
g24
sbsba(icolor_base
Bucket
p2421
(dp2422
g5
F521.0
sg6
(F120.74830913479308
F103.17463719081275
F42.071686899338097
tp2423
sg8
F0.072724734785036299
sg9
g10
(g11
g12
Ntp2424
Rp2425
(dp2426
g16
F44.136805028266664
sg17
g18
sg19
F-0.58564729345833566
sg20
F36.178435392380678
sg21
(lp2427
g23
ag17
asg23
g24
sbsba(icolor_base
Bucket
p2428
(dp2429
g5
I8
sg6
(F252.0
F254.0
F243.0
tp2430
sg8
F0.0011166945840312675
sg9
g10
(g11
g12
Ntp2431
Rp2432
(dp2433
g16
F99.241096774222612
sg17
g18
sg19
F-2.5579441460115149
sg20
F5.0135733689413042
sg21
(lp2434
g23
ag17
asg23
g24
sbsbatp2435
a(S"photos/Trader_Joe's_Hefeweizen.png"
p2436
(lp2437
(icolor_base
Bucket
p2438
(dp2439
g5
F10205.0
sg6
(F23.309837749490363
F76.374122438256762
F126.4250051342412
tp2440
sg8
F0.70427881297446515
sg9
g10
(g11
g12
Ntp2441
Rp2442
(dp2443
g16
F31.478763257042068
sg17
g18
sg19
F1.9243403860970953
sg20
F-33.155026775081652
sg21
(lp2444
g23
ag17
asg23
g24
sbsba(icolor_base
Bucket
p2445
(dp2446
g5
F2503.0
sg6
(F21.613952837651823
F41.042275850839225
F55.759116542530833
tp2447
sg8
F0.17273982056590753
sg9
g10
(g11
g12
Ntp2448
Rp2449
(dp2450
g16
F15.705446711381843
sg17
g18
sg19
F-2.4685524551169289
sg20
F-12.033787160395859
sg21
(lp2451
g23
ag17
asg23
g24
sbsba(icolor_base
Bucket
p2452
(dp2453
g5
F803.0
sg6
(F238.80485693728258
F243.33313878034818
F187.61537950431699
tp2454
sg8
F0.055417529330572812
sg9
g10
(g11
g12
Ntp2455
Rp2456
(dp2457
g16
F94.347866744114725
sg17
g18
sg19
F-10.088663126790632
sg20
F26.151626130000128
sg21
(lp2458
g23
ag17
asg23
g24
sbsba(icolor_base
Bucket
p2459
(dp2460
g5
F407.0
sg6
(F160.69905857185179
F160.17136448710713
F91.331734759829217
tp2461
sg8
F0.028088336783988959
sg9
g10
(g11
g12
Ntp2462
Rp2463
(dp2464
g16
F64.543190573511779
sg17
g18
sg19
F-9.9562444477300218
sg20
F35.983550853498912
sg21
(lp2465
g23
ag17
asg23
g24
sbsba(icolor_base
Bucket
p2466
(dp2467
g5
F146.0
sg6
(F85.394725490174764
F95.71204851411882
F77.704525239103276
tp2468
sg8
F0.010075914423740511
sg9
g10
(g11
g12
Ntp2469
Rp2470
(dp2471
g16
F39.321580308780689
sg17
g18
sg19
F-8.0205730719939687
sg20
F8.8755301904993029
sg21
(lp2472
g23
ag17
asg23
g24
sbsba(icolor_base
Bucket
p2473
(dp2474
g5
F145.0
sg6
(F189.4277722785111
F206.87388347623678
F114.34431627750159
tp2475
sg8
F0.010006901311249138
sg9
g10
(g11
g12
Ntp2476
Rp2477
(dp2478
g16
F79.98761489389625
sg17
g18
sg19
F-20.223797543820588
sg20
F43.99211461458907
sg21
(lp2479
g23
ag17
asg23
g24
sbsbatp2480
a(S"photos/Trader_Joe's_Hofbrau_Bock.png"
p2481
(lp2482
(icolor_base
Bucket
p2483
(dp2484
g5
F9319.0
sg6
(F64.624162708367507
F112.94128033932965
F27.135001294098451
tp2485
sg8
F0.64335519502934069
sg9
g10
(g11
g12
Ntp2486
Rp2487
(dp2488
g16
F42.782511139309044
sg17
g18
sg19
F-31.69928078150755
sg20
F40.199120884532526
sg21
(lp2489
g23
ag17
asg23
g24
sbsba(icolor_base
Bucket
p2490
(dp2491
g5
F1979.0
sg6
(F27.06130522205402
F63.681710462671951
F10.569793993143618
tp2492
sg8
F0.13662409389023128
sg9
g10
(g11
g12
Ntp2493
Rp2494
(dp2495
g16
F23.41793319095391
sg17
g18
sg19
F-24.3316743935153
sg20
g149
(g153
S'w\xc92/M\xc8:@'
p2496
tp2497
Rp2498
sg21
(lp2499
g23
ag17
asg23
g24
sbsba(icolor_base
Bucket
p2500
(dp2501
g5
F1386.0
sg6
(F9.6039351225289771
F23.452445635289099
F14.906218938523521
tp2502
sg8
F0.095685191577493958
sg9
g10
(g11
g12
Ntp2503
Rp2504
(dp2505
g16
g149
(g153
S'P\xefw9\xd0\xb7\x19@'
p2506
tp2507
Rp2508
sg17
g18
sg19
g149
(g153
S'\x8e-\x07r\xb3\x03\x1a\xc0'
p2509
tp2510
Rp2511
sg20
g149
(g153
S'\xe2\x02A\x9fj_\x08@'
p2512
tp2513
Rp2514
sg21
(lp2515
g23
ag17
asg23
g24
sbsba(icolor_base
Bucket
p2516
(dp2517
g5
F1354.0
sg6
(F194.6904681038001
F220.69795469470725
F131.83668300724344
tp2518
sg8
F0.093476009665170862
sg9
g10
(g11
g12
Ntp2519
Rp2520
(dp2521
g16
F84.473756409805517
sg17
g18
sg19
F-22.763644175355314
sg20
F40.809647067091333
sg21
(lp2522
g23
ag17
asg23
g24
sbsba(icolor_base
Bucket
p2523
(dp2524
g5
F423.0
sg6
(F118.1027952633591
F156.26452792972722
F67.04356068008839
tp2525
sg8
F0.029202623403520884
sg9
g10
(g11
g12
Ntp2526
Rp2527
(dp2528
g16
F59.918784590406986
sg17
g18
sg19
F-28.00683093526979
sg20
F41.732025640379419
sg21
(lp2529
g23
ag17
asg23
g24
sbsba(icolor_base
Bucket
p2530
(dp2531
g5
F16.0
sg6
(F175.5625
F222.8125
F193.24999999999997
tp2532
sg8
F0.0011045909561615463
sg9
g10
(g11
g12
Ntp2533
Rp2534
(dp2535
g16
F84.922032396403608
sg17
g18
sg19
F-21.109388858341237
sg20
F9.7443671038378596
sg21
(lp2536
g23
ag17
asg23
g24
sbsbatp2537
a(S'photos/Trumler_Pils.png'
p2538
(lp2539
(icolor_base
Bucket
p2540
(dp2541
g5
F4873.0
sg6
(F208.24732640355785
F168.39991616423379
F84.676788133189291
tp2542
sg8
F0.67427701674277019
sg9
g10
(g11
g12
Ntp2543
Rp2544
(dp2545
g16
F70.92107888521609
sg17
g18
sg19
F5.1329012966907506
sg20
F47.682447623560201
sg21
(lp2546
g23
ag17
asg23
g24
sbsba(icolor_base
Bucket
p2547
(dp2548
g5
F1288.0
sg6
(F99.989671802951833
F76.061840162961587
F37.090472719103403
tp2549
sg8
F0.17822056178220561
sg9
g10
(g11
g12
Ntp2550
Rp2551
(dp2552
g16
F34.008202694152658
sg17
g18
sg19
F5.1471622616733601
sg20
F26.726684173631021
sg21
(lp2553
g23
ag17
asg23
g24
sbsba(icolor_base
Bucket
p2554
(dp2555
g5
F996.0
sg6
(F157.01385936924007
F124.04019061598042
F60.340923818595215
tp2556
sg8
F0.13781652137816522
sg9
g10
(g11
g12
Ntp2557
Rp2558
(dp2559
g16
F53.932045091364259
sg17
g18
sg19
F5.2291178822964079
sg20
F39.142471495215794
sg21
(lp2560
g23
ag17
asg23
g24
sbsba(icolor_base
Bucket
p2561
(dp2562
g5
F38.0
sg6
(F48.207686809616632
F47.959194282001306
F27.408271604938268
tp2563
sg8
F0.0052580600525806006
sg9
g10
(g11
g12
Ntp2564
Rp2565
(dp2566
g16
F19.314112138216423
sg17
g18
sg19
F-4.0421953505702657
sg20
F13.468132103823633
sg21
(lp2567
g23
ag17
asg23
g24
sbsbatp2568
a(S'photos/Trumler_Pils_normal.png'
p2569
(lp2570
(icolor_base
Bucket
p2571
(dp2572
g5
F2610.0
sg6
(F199.62990303070529
F185.04906096528688
F162.06704963410203
tp2573
sg8
F0.36432160804020103
sg9
g10
(g11
g12
Ntp2574
Rp2575
(dp2576
g16
F75.814812724889151
sg17
g18
sg19
F1.5569938990995236
sg20
F13.597289021946901
sg21
(lp2577
g23
ag17
asg23
g24
sbsba(icolor_base
Bucket
p2578
(dp2579
g5
F2264.0
sg6
(F144.98066189770407
F134.15022237824172
F114.71647628581809
tp2580
sg8
F0.31602456728084871
sg9
g10
(g11
g12
Ntp2581
Rp2582
(dp2583
g16
F56.394938228220028
sg17
g18
sg19
F0.86256951702784468
sg20
F11.732472566372977
sg21
(lp2584
g23
ag17
asg23
g24
sbsba(icolor_base
Bucket
p2585
(dp2586
g5
F1353.0
sg6
(F43.550487449736778
F38.847744299915782
F30.61241190583247
tp2587
sg8
F0.1888609715242881
sg9
g10
(g11
g12
Ntp2588
Rp2589
(dp2590
g16
F15.929567903831245
sg17
g18
sg19
F0.67558781663787371
sg20
F6.1370483959298667
sg21
(lp2591
g23
ag17
asg23
g24
sbsba(icolor_base
Bucket
p2592
(dp2593
g5
F702.0
sg6
(F98.959919500397518
F88.532472195012119
F72.814152362498405
tp2594
sg8
F0.097989949748743713
sg9
g10
(g11
g12
Ntp2595
Rp2596
(dp2597
g16
F38.337924238920337
sg17
g18
sg19
F1.1996469712932112
sg20
F10.74967729400942
sg21
(lp2598
g23
ag17
asg23
g24
sbsba(icolor_base
Bucket
p2599
(dp2600
g5
F80.0
sg6
(F64.260745847689194
F58.636584513622168
F73.099232887771294
tp2601
sg8
F0.011166945840312675
sg9
g10
(g11
g12
Ntp2602
Rp2603
(dp2604
g16
F25.859308640086915
sg17
g18
sg19
F5.4171824917934321
sg20
F-7.7687201841967308
sg21
(lp2605
g23
ag17
asg23
g24
sbsbatp2606
a(S'photos/Victory_Golden_Monkey.png'
p2607
(lp2608
(icolor_base
Bucket
p2609
(dp2610
g5
F4944.0
sg6
(F69.875971542827273
F59.317330060620542
F218.11515380588125
tp2611
sg8
F0.69011725293132331
sg9
g10
(g11
g12
Ntp2612
Rp2613
(dp2614
g16
F36.913184379485912
sg17
g18
sg19
F52.207452208664215
sg20
F-79.115200475758982
sg21
(lp2615
g23
ag17
asg23
g24
sbsba(icolor_base
Bucket
p2616
(dp2617
g5
F1458.0
sg6
(F229.65287846340712
F101.68927422193414
F95.721330240947339
tp2618
sg8
F0.20351758793969849
sg9
g10
(g11
g12
Ntp2619
Rp2620
(dp2621
g16
F59.135010394305695
sg17
g18
sg19
F49.259424059475975
sg20
F28.045978114933611
sg21
(lp2622
g23
ag17
asg23
g24
sbsba(icolor_base
Bucket
p2623
(dp2624
g5
F260.0
sg6
(F215.29090764797127
F215.02500493479408
F212.88745746089225
tp2625
sg8
F0.036292573981016193
sg9
g10
(g11
g12
Ntp2626
Rp2627
(dp2628
g16
F85.932409905297675
sg17
g18
sg19
F-0.36025632621577985
sg20
F0.97645748135981592
sg21
(lp2629
g23
ag17
asg23
g24
sbsba(icolor_base
Bucket
p2630
(dp2631
g5
F177.0
sg6
(F172.80057354510993
F76.737704913719853
F111.86482295691744
tp2632
sg8
F0.024706867671691793
sg9
g10
(g11
g12
Ntp2633
Rp2634
(dp2635
g16
F46.128282331161984
sg17
g18
sg19
F42.933795386405734
sg20
F-0.77145679777408382
sg21
(lp2636
g23
ag17
asg23
g24
sbsba(icolor_base
Bucket
p2637
(dp2638
g5
F139.0
sg6
(F122.95910972034126
F67.222773922666633
F139.97261126510745
tp2639
sg8
F0.019402568397543271
sg9
g10
(g11
g12
Ntp2640
Rp2641
(dp2642
g16
F38.055535790071502
sg17
g18
sg19
F36.653315610741032
sg20
F-30.844613748430593
sg21
(lp2643
g23
ag17
asg23
g24
sbsba(icolor_base
Bucket
p2644
(dp2645
g5
F95.0
sg6
(F189.94726561656833
F186.38435506505448
F214.7708597637797
tp2646
sg8
F0.013260748185371301
sg9
g10
(g11
g12
Ntp2647
Rp2648
(dp2649
g16
F76.66149969980799
sg17
g18
sg19
F7.0503212235940023
sg20
F-14.024169725621881
sg21
(lp2650
g23
ag17
asg23
g24
sbsba(icolor_base
Bucket
p2651
(dp2652
g5
F57.0
sg6
(F157.01961986184551
F145.16389860139859
F194.90952797202797
tp2653
sg8
F0.0079564489112227809
sg9
g10
(g11
g12
Ntp2654
Rp2655
(dp2656
g16
F62.809477362964643
sg17
g18
sg19
F14.817139088661445
sg20
F-24.261823899829583
sg21
(lp2657
g23
ag17
asg23
g24
sbsba(icolor_base
Bucket
p2658
(dp2659
g5
F24.0
sg6
(F118.86921850079744
F106.40829346092502
F194.36523125996803
tp2660
sg8
F0.0033500837520938024
sg9
g10
(g11
g12
Ntp2661
Rp2662
(dp2663
g16
F49.647006446404262
sg17
g18
sg19
F26.331109969180091
sg20
F-44.486642488526826
sg21
(lp2664
g23
ag17
asg23
g24
sbsbatp2665
a(S'photos/Widmer.png'
p2666
(lp2667
(icolor_base
Bucket
p2668
(dp2669
g5
F1955.0
sg6
(F54.414917812540594
F49.453554073495674
F37.46106627376313
tp2670
sg8
F0.27323549965059402
sg9
g10
(g11
g12
Ntp2671
Rp2672
(dp2673
g16
F20.496811605535854
sg17
g18
sg19
F-0.11940479121816394
sg20
F8.4873457878718241
sg21
(lp2674
g23
ag17
asg23
g24
sbsba(icolor_base
Bucket
p2675
(dp2676
g5
F1894.0
sg6
(F244.92789804614461
F203.92213018305503
F98.155584398152612
tp2677
sg8
F0.26470999301187981
sg9
g10
(g11
g12
Ntp2678
Rp2679
(dp2680
g16
F83.695575971077758
sg17
g18
sg19
F2.6331230775600845
sg20
F57.127635382742412
sg21
(lp2681
g23
ag17
asg23
g24
sbsba(icolor_base
Bucket
p2682
(dp2683
g5
F1337.0
sg6
(F226.53409229942173
F221.32353782296684
F200.0538711058617
tp2684
sg8
F0.18686233403214536
sg9
g10
(g11
g12
Ntp2685
Rp2686
(dp2687
g16
F88.071667135528202
sg17
g18
sg19
F-1.4841305409351024
sg20
F11.032472814414284
sg21
(lp2688
g23
ag17
asg23
g24
sbsba(icolor_base
Bucket
p2689
(dp2690
g5
F343.0
sg6
(F115.12639277364325
F92.736102830581714
F48.996971436968991
tp2691
sg8
F0.047938504542278125
sg9
g10
(g11
g12
Ntp2692
Rp2693
(dp2694
g16
F40.728413549726554
sg17
g18
sg19
F3.0598821148563604
sg20
F28.377400249790064
sg21
(lp2695
g23
ag17
asg23
g24
sbsba(icolor_base
Bucket
p2696
(dp2697
g5
F324.0
sg6
(F224.96877220292217
F79.193211746867917
F55.775078831158311
tp2698
sg8
F0.045283018867924525
sg9
g10
(g11
g12
Ntp2699
Rp2700
(dp2701
g16
F53.908895785406656
sg17
g18
sg19
F55.55176889107377
sg20
F43.811919025847367
sg21
(lp2702
g23
ag17
asg23
g24
sbsba(icolor_base
Bucket
p2703
(dp2704
g5
F262.0
sg6
(F173.796310850515
F152.47801633178688
F82.481884819476363
tp2705
sg8
F0.036617749825296995
sg9
g10
(g11
g12
Ntp2706
Rp2707
(dp2708
g16
F63.396791969090643
sg17
g18
sg19
F-1.0145084982291497
sg20
F39.480277964323861
sg21
(lp2709
g23
ag17
asg23
g24
sbsba(icolor_base
Bucket
p2710
(dp2711
g5
F190.0
sg6
(F53.866615173483297
F48.340867215536534
F62.669888741995976
tp2712
sg8
F0.026554856743535988
sg9
g10
(g11
g12
Ntp2713
Rp2714
(dp2715
g16
F21.045336482326228
sg17
g18
sg19
F6.2763058700031351
sg20
F-8.4480887090241268
sg21
(lp2716
g23
ag17
asg23
g24
sbsbatp2717
a(S'photos/XX.png'
p2718
(lp2719
(icolor_base
Bucket
p2720
(dp2721
g5
F7111.0
sg6
(F38.225648873225154
F84.361237093263142
F69.714807164993658
tp2722
sg8
F0.49054911699779247
sg9
g10
(g11
g12
Ntp2723
Rp2724
(dp2725
g16
F32.245790082373944
sg17
g18
sg19
F-19.679380952169701
sg20
F3.3866311050104181
sg21
(lp2726
g23
ag17
asg23
g24
sbsba(icolor_base
Bucket
p2727
(dp2728
g5
F3813.0
sg6
(F131.42779651943505
F51.35706994235192
F41.145618795349407
tp2729
sg8
F0.26303807947019869
sg9
g10
(g11
g12
Ntp2730
Rp2731
(dp2732
g16
F32.59989638209926
sg17
g18
sg19
F33.769609239075486
sg20
F23.785933904265399
sg21
(lp2733
g23
ag17
asg23
g24
sbsba(icolor_base
Bucket
p2734
(dp2735
g5
F2499.0
sg6
(F111.28257676078132
F132.36709148512819
F91.635107987025137
tp2736
sg8
F0.17239238410596028
sg9
g10
(g11
g12
Ntp2737
Rp2738
(dp2739
g16
F52.569284389846274
sg17
g18
sg19
F-15.298532850307078
sg20
F19.164509065837255
sg21
(lp2740
g23
ag17
asg23
g24
sbsba(icolor_base
Bucket
p2741
(dp2742
g5
F638.0
sg6
(F124.51082928276797
F90.107721408474731
F65.101015245751839
tp2743
sg8
F0.044012141280353204
sg9
g10
(g11
g12
Ntp2744
Rp2745
(dp2746
g16
F41.302765775962698
sg17
g18
sg19
F11.067916059689347
sg20
F20.078353853463682
sg21
(lp2747
g23
ag17
asg23
g24
sbsba(icolor_base
Bucket
p2748
(dp2749
g5
F150.0
sg6
(F78.163139382683624
F84.273076600225636
F57.907219824230488
tp2750
sg8
F0.010347682119205299
sg9
g10
(g11
g12
Ntp2751
Rp2752
(dp2753
g16
F34.530487405984736
sg17
g18
sg19
F-7.4670608757664017
sg20
F14.440990957768863
sg21
(lp2754
g23
ag17
asg23
g24
sbsba(icolor_base
Bucket
p2755
(dp2756
g5
F132.0
sg6
(F76.292340999351282
F46.871974754399226
F39.589138161750007
tp2757
sg8
F0.0091059602649006619
sg9
g10
(g11
g12
Ntp2758
Rp2759
(dp2760
g16
F22.733652677842692
sg17
g18
sg19
F12.304624485616644
sg20
F9.9732161767934873
sg21
(lp2761
g23
ag17
asg23
g24
sbsba(icolor_base
Bucket
p2762
(dp2763
g5
F73.0
sg6
(F124.57048440988616
F114.63925255889113
F85.567626019090753
tp2764
sg8
F0.0050358719646799114
sg9
g10
(g11
g12
Ntp2765
Rp2766
(dp2767
g16
F48.627889365049711
sg17
g18
sg19
F-0.96014427603480224
sg20
F17.482591344575681
sg21
(lp2768
g23
ag17
asg23
g24
sbsba(icolor_base
Bucket
p2769
(dp2770
g5
F35.0
sg6
(F126.46748481781376
F154.02454453441294
F136.46849696356279
tp2771
sg8
F0.0024144591611479031
sg9
g10
(g11
g12
Ntp2772
Rp2773
(dp2774
g16
F61.066386722332794
sg17
g18
sg19
F-13.529811707538197
sg20
F6.2144608512199051
sg21
(lp2775
g23
ag17
asg23
g24
sbsbatp2776
a.